(dp1
S'startingTeam'
p2
I1
sS'layout'
p3
(ilayout
Layout
p4
(dp5
S'capsules'
p6
(lp7
(I26
I1
tp8
a(I10
I3
tp9
a(I23
I14
tp10
a(I7
I16
tp11
asS'numGhosts'
p12
I4
sS'food'
p13
(igame
Grid
p14
(dp15
S'CELLS_PER_INT'
p16
I30
sS'width'
p17
I34
sS'data'
p18
(lp19
(lp20
I00
aI00
aI00
aI00
aI00
aI00
aI00
aI00
aI00
aI00
aI00
aI00
aI00
aI00
aI00
aI00
aI00
aI00
aa(lp21
I00
aI00
aI00
aI00
aI00
aI00
aI00
aI00
aI00
aI00
aI00
aI00
aI00
aI00
aI00
aI00
aI01
aI00
aa(lp22
I00
aI00
aI00
aI00
aI00
aI00
aI00
aI00
aI00
aI00
aI00
aI00
aI00
aI00
aI01
aI00
aI01
aI00
aa(lp23
I00
aI00
aI00
aI00
aI00
aI00
aI00
aI00
aI00
aI00
aI00
aI00
aI00
aI00
aI00
aI00
aI00
aI00
aa(lp24
I00
aI00
aI00
aI00
aI00
aI01
aI00
aI01
aI00
aI00
aI01
aI01
aI00
aI00
aI00
aI00
aI01
aI00
aa(lp25
I00
aI00
aI00
aI00
aI00
aI01
aI00
aI00
aI00
aI00
aI00
aI00
aI01
aI00
aI00
aI00
aI01
aI00
aa(lp26
I00
aI00
aI00
aI01
aI00
aI00
aI00
aI00
aI00
aI00
aI00
aI00
aI00
aI00
aI00
aI00
aI00
aI00
aa(lp27
I00
aI00
aI00
aI01
aI00
aI00
aI00
aI00
aI00
aI00
aI00
aI00
aI01
aI00
aI00
aI00
aI00
aI00
aa(lp28
I00
aI00
aI00
aI00
aI00
aI00
aI00
aI00
aI01
aI00
aI00
aI00
aI01
aI00
aI00
aI00
aI00
aI00
aa(lp29
I00
aI01
aI00
aI00
aI00
aI00
aI00
aI00
aI00
aI00
aI00
aI00
aI00
aI00
aI00
aI00
aI00
aI00
aa(lp30
I00
aI00
aI00
aI00
aI00
aI01
aI00
aI00
aI00
aI00
aI00
aI00
aI00
aI00
aI00
aI00
aI00
aI00
aa(lp31
I00
aI00
aI00
aI00
aI00
aI00
aI00
aI00
aI00
aI00
aI00
aI00
aI00
aI00
aI00
aI00
aI00
aI00
aa(lp32
I00
aI01
aI00
aI00
aI00
aI01
aI00
aI00
aI00
aI00
aI01
aI00
aI00
aI00
aI00
aI00
aI01
aI00
aa(lp33
I00
aI01
aI00
aI01
aI00
aI00
aI00
aI00
aI00
aI00
aI00
aI00
aI00
aI00
aI00
aI00
aI00
aI00
aa(lp34
I00
aI01
aI00
aI01
aI00
aI01
aI00
aI00
aI00
aI00
aI00
aI00
aI00
aI01
aI00
aI01
aI01
aI00
aa(lp35
I00
aI00
aI00
aI00
aI00
aI00
aI00
aI00
aI00
aI00
aI00
aI00
aI00
aI00
aI00
aI00
aI00
aI00
aa(lp36
I00
aI00
aI00
aI00
aI00
aI00
aI00
aI00
aI00
aI00
aI00
aI00
aI00
aI00
aI00
aI00
aI00
aI00
aa(lp37
I00
aI00
aI00
aI00
aI00
aI00
aI00
aI00
aI00
aI00
aI00
aI00
aI00
aI00
aI00
aI00
aI00
aI00
aa(lp38
I00
aI00
aI00
aI00
aI00
aI00
aI00
aI00
aI00
aI00
aI00
aI00
aI00
aI00
aI00
aI00
aI00
aI00
aa(lp39
I00
aI01
aI01
aI00
aI01
aI00
aI00
aI00
aI00
aI00
aI00
aI00
aI01
aI00
aI01
aI00
aI01
aI00
aa(lp40
I00
aI00
aI00
aI00
aI00
aI00
aI00
aI00
aI00
aI00
aI00
aI00
aI00
aI00
aI01
aI00
aI01
aI00
aa(lp41
I00
aI01
aI00
aI00
aI00
aI00
aI00
aI01
aI00
aI00
aI00
aI00
aI01
aI00
aI00
aI00
aI01
aI00
aa(lp42
I00
aI00
aI00
aI00
aI00
aI00
aI00
aI00
aI00
aI00
aI00
aI00
aI00
aI00
aI00
aI00
aI00
aI00
aa(lp43
I00
aI00
aI00
aI00
aI00
aI00
aI00
aI00
aI00
aI00
aI00
aI00
aI01
aI00
aI00
aI00
aI00
aI00
aa(lp44
I00
aI00
aI00
aI00
aI00
aI00
aI00
aI00
aI00
aI00
aI00
aI00
aI00
aI00
aI00
aI00
aI01
aI00
aa(lp45
I00
aI00
aI00
aI00
aI00
aI01
aI00
aI00
aI00
aI01
aI00
aI00
aI00
aI00
aI00
aI00
aI00
aI00
aa(lp46
I00
aI00
aI00
aI00
aI00
aI01
aI00
aI00
aI00
aI00
aI00
aI00
aI00
aI00
aI01
aI00
aI00
aI00
aa(lp47
I00
aI00
aI00
aI00
aI00
aI00
aI00
aI00
aI00
aI00
aI00
aI00
aI00
aI00
aI01
aI00
aI00
aI00
aa(lp48
I00
aI01
aI00
aI00
aI00
aI01
aI00
aI00
aI00
aI00
aI00
aI00
aI01
aI00
aI00
aI00
aI00
aI00
aa(lp49
I00
aI01
aI00
aI00
aI00
aI00
aI01
aI01
aI00
aI00
aI01
aI00
aI01
aI00
aI00
aI00
aI00
aI00
aa(lp50
I00
aI00
aI00
aI00
aI00
aI00
aI00
aI00
aI00
aI00
aI00
aI00
aI00
aI00
aI00
aI00
aI00
aI00
aa(lp51
I00
aI01
aI00
aI01
aI00
aI00
aI00
aI00
aI00
aI00
aI00
aI00
aI00
aI00
aI00
aI00
aI00
aI00
aa(lp52
I00
aI01
aI00
aI00
aI00
aI00
aI00
aI00
aI00
aI00
aI00
aI00
aI00
aI00
aI00
aI00
aI00
aI00
aa(lp53
I00
aI00
aI00
aI00
aI00
aI00
aI00
aI00
aI00
aI00
aI00
aI00
aI00
aI00
aI00
aI00
aI00
aI00
aasS'height'
p54
I18
sbsS'agentPositions'
p55
(lp56
(I00
(I1
I2
tp57
tp58
a(I00
(I32
I15
tp59
tp60
a(I00
(I1
I1
tp61
tp62
a(I00
(I32
I16
tp63
tp64
asg54
I18
sg17
I34
sS'walls'
p65
(igame
Grid
p66
(dp67
g16
I30
sg17
I34
sg18
(lp68
(lp69
I01
aI01
aI01
aI01
aI01
aI01
aI01
aI01
aI01
aI01
aI01
aI01
aI01
aI01
aI01
aI01
aI01
aI01
aa(lp70
I01
aI00
aI00
aI00
aI01
aI00
aI00
aI00
aI00
aI00
aI00
aI00
aI00
aI00
aI00
aI00
aI00
aI01
aa(lp71
I01
aI00
aI01
aI00
aI01
aI00
aI00
aI00
aI00
aI00
aI00
aI00
aI00
aI01
aI00
aI01
aI00
aI01
aa(lp72
I01
aI00
aI00
aI00
aI01
aI01
aI01
aI01
aI01
aI01
aI01
aI00
aI01
aI01
aI01
aI01
aI01
aI01
aa(lp73
I01
aI00
aI01
aI00
aI01
aI00
aI01
aI00
aI00
aI01
aI00
aI00
aI00
aI00
aI00
aI01
aI00
aI01
aa(lp74
I01
aI00
aI01
aI01
aI01
aI00
aI01
aI00
aI00
aI01
aI00
aI01
aI00
aI01
aI00
aI01
aI00
aI01
aa(lp75
I01
aI00
aI01
aI00
aI01
aI00
aI01
aI00
aI01
aI01
aI00
aI01
aI01
aI01
aI00
aI01
aI00
aI01
aa(lp76
I01
aI00
aI01
aI00
aI01
aI00
aI01
aI00
aI00
aI01
aI00
aI01
aI00
aI00
aI00
aI00
aI00
aI01
aa(lp77
I01
aI00
aI00
aI00
aI01
aI00
aI00
aI00
aI00
aI01
aI00
aI01
aI00
aI01
aI00
aI00
aI00
aI01
aa(lp78
I01
aI00
aI01
aI00
aI01
aI01
aI01
aI01
aI00
aI01
aI00
aI01
aI01
aI01
aI01
aI00
aI01
aI01
aa(lp79
I01
aI00
aI01
aI00
aI01
aI00
aI00
aI00
aI00
aI00
aI00
aI01
aI00
aI00
aI00
aI00
aI00
aI01
aa(lp80
I01
aI00
aI01
aI00
aI01
aI01
aI00
aI01
aI01
aI01
aI00
aI00
aI00
aI01
aI00
aI00
aI00
aI01
aa(lp81
I01
aI00
aI01
aI00
aI00
aI00
aI00
aI00
aI00
aI00
aI00
aI01
aI00
aI01
aI00
aI01
aI00
aI01
aa(lp82
I01
aI00
aI01
aI00
aI01
aI00
aI00
aI00
aI01
aI00
aI01
aI01
aI00
aI01
aI00
aI01
aI01
aI01
aa(lp83
I01
aI00
aI01
aI00
aI01
aI00
aI01
aI00
aI00
aI00
aI00
aI00
aI00
aI00
aI00
aI00
aI00
aI01
aa(lp84
I01
aI01
aI01
aI01
aI01
aI01
aI01
aI01
aI01
aI00
aI01
aI00
aI01
aI00
aI01
aI01
aI01
aI01
aa(lp85
I01
aI00
aI00
aI00
aI00
aI00
aI00
aI00
aI00
aI00
aI00
aI00
aI00
aI00
aI00
aI00
aI00
aI01
aa(lp86
I01
aI00
aI00
aI00
aI00
aI00
aI00
aI00
aI00
aI00
aI00
aI00
aI00
aI00
aI00
aI00
aI00
aI01
aa(lp87
I01
aI01
aI01
aI01
aI00
aI01
aI00
aI01
aI00
aI01
aI01
aI01
aI01
aI01
aI01
aI01
aI01
aI01
aa(lp88
I01
aI00
aI00
aI00
aI00
aI00
aI00
aI00
aI00
aI00
aI00
aI01
aI00
aI01
aI00
aI01
aI00
aI01
aa(lp89
I01
aI01
aI01
aI00
aI01
aI00
aI01
aI01
aI00
aI01
aI00
aI00
aI00
aI01
aI00
aI01
aI00
aI01
aa(lp90
I01
aI00
aI01
aI00
aI01
aI00
aI01
aI00
aI00
aI00
aI00
aI00
aI00
aI00
aI00
aI01
aI00
aI01
aa(lp91
I01
aI00
aI00
aI00
aI01
aI00
aI00
aI00
aI01
aI01
aI01
aI00
aI01
aI01
aI00
aI01
aI00
aI01
aa(lp92
I01
aI00
aI00
aI00
aI00
aI00
aI01
aI00
aI00
aI00
aI00
aI00
aI00
aI01
aI00
aI01
aI00
aI01
aa(lp93
I01
aI01
aI00
aI01
aI01
aI01
aI01
aI00
aI01
aI00
aI01
aI01
aI01
aI01
aI00
aI01
aI00
aI01
aa(lp94
I01
aI00
aI00
aI00
aI01
aI00
aI01
aI00
aI01
aI00
aI00
aI00
aI00
aI01
aI00
aI00
aI00
aI01
aa(lp95
I01
aI00
aI00
aI00
aI00
aI00
aI01
aI00
aI01
aI00
aI00
aI01
aI00
aI01
aI00
aI01
aI00
aI01
aa(lp96
I01
aI00
aI01
aI00
aI01
aI01
aI01
aI00
aI01
aI01
aI00
aI01
aI00
aI01
aI00
aI01
aI00
aI01
aa(lp97
I01
aI00
aI01
aI00
aI01
aI00
aI01
aI00
aI01
aI00
aI00
aI01
aI00
aI01
aI01
aI01
aI00
aI01
aa(lp98
I01
aI00
aI01
aI00
aI00
aI00
aI00
aI00
aI01
aI00
aI00
aI01
aI00
aI01
aI00
aI01
aI00
aI01
aa(lp99
I01
aI01
aI01
aI01
aI01
aI01
aI00
aI01
aI01
aI01
aI01
aI01
aI01
aI01
aI00
aI00
aI00
aI01
aa(lp100
I01
aI00
aI01
aI00
aI01
aI00
aI00
aI00
aI00
aI00
aI00
aI00
aI00
aI01
aI00
aI01
aI00
aI01
aa(lp101
I01
aI00
aI00
aI00
aI00
aI00
aI00
aI00
aI00
aI00
aI00
aI00
aI00
aI01
aI00
aI00
aI00
aI01
aa(lp102
I01
aI01
aI01
aI01
aI01
aI01
aI01
aI01
aI01
aI01
aI01
aI01
aI01
aI01
aI01
aI01
aI01
aI01
aasg54
I18
sbsS'totalFood'
p103
I60
sS'layoutText'
p104
(lp105
S'%%%%%%%%%%%%%%%%%%%%%%%%%%%%%%%%%%'
p106
aS'%..%.. o %  .%.%  %...  .       4%'
p107
aS'% %%%%%     %%.%  %%%%%%% %%%% %2%'
p108
aS'% .%     %     %  %..  o  ..%    %'
p109
aS'% %% %% %% %%%.   %%% %%%%%%%%%%%%'
p110
aS'%  % .%..%     %  %. .%.%   ..%  %'
p111
aS'%   .%%%%%% %%    %%    % %%%%%  %'
p112
aS'%  %.       .% %  %   % %    .%  %'
p113
aS'%  %%%%%%% %      % % %  . %  %  %'
p114
aS'%  %  % .  % % %      % %%%%%%%  %'
p115
aS'%  %.    % %   %  % %.       .%  %'
p116
aS'%  %%%%% %    %%    %% %%%%%%.   %'
p117
aS'%  %..   %.%. .%  %     %..%. %  %'
p118
aS'%%%%%%%%%%%% %%%   .%%% %% %% %% %'
p119
aS'%    %..  o  ..%  %     %     %. %'
p120
aS'%1% %%%% %%%%%%%  %.%%     %%%%% %'
p121
aS'%3       .  ...%  %.%.  % o ..%..%'
p122
aS'%%%%%%%%%%%%%%%%%%%%%%%%%%%%%%%%%%'
p123
asbsS'blueTeamName'
p124
S'Team1'
p125
sS'actions'
p126
(lp127
(I1
S'South'
p128
tp129
a(I2
S'East'
p130
tp131
a(I3
S'West'
p132
tp133
a(I0
g128
tp134
a(I1
g132
tp135
a(I2
g130
tp136
a(I3
g132
tp137
a(I0
g130
tp138
a(I1
g132
tp139
a(I2
g130
tp140
a(I3
g128
tp141
a(I0
g130
tp142
a(I1
g132
tp143
a(I2
g130
tp144
a(I3
g128
tp145
a(I0
g130
tp146
a(I1
g130
tp147
a(I2
g130
tp148
a(I3
g130
tp149
a(I0
g130
tp150
a(I1
S'North'
p151
tp152
a(I2
g130
tp153
a(I3
g130
tp154
a(I0
g130
tp155
a(I1
g151
tp156
a(I2
g130
tp157
a(I3
g151
tp158
a(I0
g130
tp159
a(I1
g130
tp160
a(I2
g151
tp161
a(I3
g151
tp162
a(I0
g130
tp163
a(I1
g130
tp164
a(I2
g151
tp165
a(I3
g132
tp166
a(I0
g151
tp167
a(I1
g128
tp168
a(I2
g130
tp169
a(I3
g132
tp170
a(I0
g151
tp171
a(I1
g128
tp172
a(I2
g130
tp173
a(I3
g128
tp174
a(I0
g130
tp175
a(I1
g132
tp176
a(I2
g130
tp177
a(I3
g128
tp178
a(I0
g130
tp179
a(I1
g132
tp180
a(I2
g130
tp181
a(I3
g132
tp182
a(I0
g130
tp183
a(I1
g151
tp184
a(I2
g151
tp185
a(I3
g130
tp186
a(I0
g130
tp187
a(I1
g151
tp188
a(I2
g151
tp189
a(I3
g130
tp190
a(I0
g151
tp191
a(I1
g132
tp192
a(I2
g130
tp193
a(I3
g130
tp194
a(I0
g151
tp195
a(I1
g132
tp196
a(I2
g151
tp197
a(I3
g151
tp198
a(I0
g151
tp199
a(I1
g132
tp200
a(I2
g151
tp201
a(I3
g151
tp202
a(I0
g130
tp203
a(I1
g132
tp204
a(I2
g130
tp205
a(I3
g132
tp206
a(I0
g151
tp207
a(I1
g132
tp208
a(I2
g151
tp209
a(I3
g132
tp210
a(I0
g130
tp211
a(I1
g132
tp212
a(I2
g151
tp213
a(I3
g128
tp214
a(I0
g151
tp215
a(I1
g132
tp216
a(I2
g130
tp217
a(I3
g128
tp218
a(I0
g151
tp219
a(I1
g132
tp220
a(I2
g130
tp221
a(I3
g130
tp222
a(I0
g130
tp223
a(I1
g132
tp224
a(I2
g151
tp225
a(I3
g130
tp226
a(I0
g130
tp227
a(I1
g132
tp228
a(I2
g151
tp229
a(I3
g151
tp230
a(I0
g128
tp231
a(I1
g132
tp232
a(I2
g151
tp233
a(I3
g151
tp234
a(I0
g130
tp235
a(I1
g130
tp236
a(I2
g151
tp237
a(I3
g132
tp238
a(I0
g130
tp239
a(I1
g130
tp240
a(I2
g151
tp241
a(I3
g132
tp242
a(I0
g130
tp243
a(I1
g130
tp244
a(I2
g151
tp245
a(I3
g132
tp246
a(I0
g130
tp247
a(I1
g130
tp248
a(I2
g151
tp249
a(I3
g132
tp250
a(I0
g130
tp251
a(I1
g130
tp252
a(I2
S'Stop'
p253
tp254
a(I3
g132
tp255
a(I0
g128
tp256
a(I1
g130
tp257
a(I2
g253
tp258
a(I3
g132
tp259
a(I0
g151
tp260
a(I1
g130
tp261
a(I2
g253
tp262
a(I3
g132
tp263
a(I0
g132
tp264
a(I1
g130
tp265
a(I2
g253
tp266
a(I3
g128
tp267
a(I0
g132
tp268
a(I1
g130
tp269
a(I2
g128
tp270
a(I3
g128
tp271
a(I0
g132
tp272
a(I1
g130
tp273
a(I2
g253
tp274
a(I3
g132
tp275
a(I0
g132
tp276
a(I1
g130
tp277
a(I2
g253
tp278
a(I3
g132
tp279
a(I0
g151
tp280
a(I1
g128
tp281
a(I2
g128
tp282
a(I3
g132
tp283
a(I0
g132
tp284
a(I1
g128
tp285
a(I2
g253
tp286
a(I3
g132
tp287
a(I0
g128
tp288
a(I1
g132
tp289
a(I2
g253
tp290
a(I3
g132
tp291
a(I0
g130
tp292
a(I1
g130
tp293
a(I2
g253
tp294
a(I3
g130
tp295
a(I0
g128
tp296
a(I1
g151
tp297
a(I2
g253
tp298
a(I3
g128
tp299
a(I0
g128
tp300
a(I1
g151
tp301
a(I2
g253
tp302
a(I3
g128
tp303
a(I0
g128
tp304
a(I1
g132
tp305
a(I2
g253
tp306
a(I3
g132
tp307
a(I0
g128
tp308
a(I1
g132
tp309
a(I2
g253
tp310
a(I3
g128
tp311
a(I0
g130
tp312
a(I1
g132
tp313
a(I2
g128
tp314
a(I3
g128
tp315
a(I0
g130
tp316
a(I1
g132
tp317
a(I2
g253
tp318
a(I3
g132
tp319
a(I0
g151
tp320
a(I1
g132
tp321
a(I2
g253
tp322
a(I3
g128
tp323
a(I0
g151
tp324
a(I1
g132
tp325
a(I2
g128
tp326
a(I3
g128
tp327
a(I0
g128
tp328
a(I1
g132
tp329
a(I2
g253
tp330
a(I3
g128
tp331
a(I0
g130
tp332
a(I1
g132
tp333
a(I2
g128
tp334
a(I3
g128
tp335
a(I0
g130
tp336
a(I1
g132
tp337
a(I2
g253
tp338
a(I3
g128
tp339
a(I0
g130
tp340
a(I1
g132
tp341
a(I2
g128
tp342
a(I3
g130
tp343
a(I0
g151
tp344
a(I1
g132
tp345
a(I2
g253
tp346
a(I3
g130
tp347
a(I0
g151
tp348
a(I1
g130
tp349
a(I2
g253
tp350
a(I3
g130
tp351
a(I0
g130
tp352
a(I1
g130
tp353
a(I2
g253
tp354
a(I3
g151
tp355
a(I0
g130
tp356
a(I1
g130
tp357
a(I2
g151
tp358
a(I3
g151
tp359
a(I0
g130
tp360
a(I1
g130
tp361
a(I2
g253
tp362
a(I3
g130
tp363
a(I0
g130
tp364
a(I1
g130
tp365
a(I2
g253
tp366
a(I3
g130
tp367
a(I0
g130
tp368
a(I1
g130
tp369
a(I2
g253
tp370
a(I3
g130
tp371
a(I0
g130
tp372
a(I1
g128
tp373
a(I2
g253
tp374
a(I3
g130
tp375
a(I0
g130
tp376
a(I1
g128
tp377
a(I2
g128
tp378
a(I3
g130
tp379
a(I0
g128
tp380
a(I1
g132
tp381
a(I2
g253
tp382
a(I3
g130
tp383
a(I0
g128
tp384
a(I1
g132
tp385
a(I2
g253
tp386
a(I3
g130
tp387
a(I0
g132
tp388
a(I1
g132
tp389
a(I2
g253
tp390
a(I3
g128
tp391
a(I0
g130
tp392
a(I1
g132
tp393
a(I2
g253
tp394
a(I3
g128
tp395
a(I0
g128
tp396
a(I1
g132
tp397
a(I2
g128
tp398
a(I3
g132
tp399
a(I0
g130
tp400
a(I1
g132
tp401
a(I2
g253
tp402
a(I3
g130
tp403
a(I0
g130
tp404
a(I1
g130
tp405
a(I2
g253
tp406
a(I3
g128
tp407
a(I0
g130
tp408
a(I1
g130
tp409
a(I2
g253
tp410
a(I3
g128
tp411
a(I0
g130
tp412
a(I1
g128
tp413
a(I2
g128
tp414
a(I3
g132
tp415
a(I0
g130
tp416
a(I1
g128
tp417
a(I2
g128
tp418
a(I3
g132
tp419
a(I0
g130
tp420
a(I1
g132
tp421
a(I2
g253
tp422
a(I3
g132
tp423
a(I0
g130
tp424
a(I1
g132
tp425
a(I2
g253
tp426
a(I3
g132
tp427
a(I0
g151
tp428
a(I1
g130
tp429
a(I2
g253
tp430
a(I3
g128
tp431
a(I0
g151
tp432
a(I1
g128
tp433
a(I2
g128
tp434
a(I3
g132
tp435
a(I0
g130
tp436
a(I1
g130
tp437
a(I2
g253
tp438
a(I3
g132
tp439
a(I0
g130
tp440
a(I1
g130
tp441
a(I2
g253
tp442
a(I3
g151
tp443
a(I0
g130
tp444
a(I1
g130
tp445
a(I2
g151
tp446
a(I3
g132
tp447
a(I0
g130
tp448
a(I1
g128
tp449
a(I2
g128
tp450
a(I3
g128
tp451
a(I0
g151
tp452
a(I1
g128
tp453
a(I2
g128
tp454
a(I3
g130
tp455
a(I0
g151
tp456
a(I1
g130
tp457
a(I2
g253
tp458
a(I3
g128
tp459
a(I0
g130
tp460
a(I1
g130
tp461
a(I2
g253
tp462
a(I3
g132
tp463
a(I0
g130
tp464
a(I1
g151
tp465
a(I2
g253
tp466
a(I3
g132
tp467
a(I0
g253
tp468
a(I1
g151
tp469
a(I2
g151
tp470
a(I3
g130
tp471
a(I0
g253
tp472
a(I1
g151
tp473
a(I2
g253
tp474
a(I3
g151
tp475
a(I0
g253
tp476
a(I1
g130
tp477
a(I2
g151
tp478
a(I3
g130
tp479
a(I0
g253
tp480
a(I1
g130
tp481
a(I2
g253
tp482
a(I3
g130
tp483
a(I0
g253
tp484
a(I1
g130
tp485
a(I2
g253
tp486
a(I3
g130
tp487
a(I0
g253
tp488
a(I1
g130
tp489
a(I2
g253
tp490
a(I3
g128
tp491
a(I0
g253
tp492
a(I1
g132
tp493
a(I2
g128
tp494
a(I3
g130
tp495
a(I0
g253
tp496
a(I1
g132
tp497
a(I2
g253
tp498
a(I3
g130
tp499
a(I0
g253
tp500
a(I1
g132
tp501
a(I2
g253
tp502
a(I3
g130
tp503
a(I0
g253
tp504
a(I1
g132
tp505
a(I2
g253
tp506
a(I3
g130
tp507
a(I0
g253
tp508
a(I1
g128
tp509
a(I2
g253
tp510
a(I3
g132
tp511
a(I0
g253
tp512
a(I1
g128
tp513
a(I2
g128
tp514
a(I3
g132
tp515
a(I0
g253
tp516
a(I1
g130
tp517
a(I2
g253
tp518
a(I3
g132
tp519
a(I0
g253
tp520
a(I1
g128
tp521
a(I2
g253
tp522
a(I3
g132
tp523
a(I0
g253
tp524
a(I1
g132
tp525
a(I2
g253
tp526
a(I3
g151
tp527
a(I0
g253
tp528
a(I1
g151
tp529
a(I2
g151
tp530
a(I3
g151
tp531
a(I0
g253
tp532
a(I1
g130
tp533
a(I2
g253
tp534
a(I3
g130
tp535
a(I0
g253
tp536
a(I1
g128
tp537
a(I2
g253
tp538
a(I3
g151
tp539
a(I0
g253
tp540
a(I1
g132
tp541
a(I2
g253
tp542
a(I3
g151
tp543
a(I0
g253
tp544
a(I1
g151
tp545
a(I2
g151
tp546
a(I3
g132
tp547
a(I0
g253
tp548
a(I1
g151
tp549
a(I2
g151
tp550
a(I3
g130
tp551
a(I0
g253
tp552
a(I1
g151
tp553
a(I2
g253
tp554
a(I3
g128
tp555
a(I0
g253
tp556
a(I1
g130
tp557
a(I2
g253
tp558
a(I3
g128
tp559
a(I0
g253
tp560
a(I1
g130
tp561
a(I2
g128
tp562
a(I3
g132
tp563
a(I0
g253
tp564
a(I1
g130
tp565
a(I2
g253
tp566
a(I3
g128
tp567
a(I0
g253
tp568
a(I1
g130
tp569
a(I2
g253
tp570
a(I3
g132
tp571
a(I0
g253
tp572
a(I1
g132
tp573
a(I2
g253
tp574
a(I3
g132
tp575
a(I0
g253
tp576
a(I1
g132
tp577
a(I2
g253
tp578
a(I3
g132
tp579
a(I0
g253
tp580
a(I1
g132
tp581
a(I2
g253
tp582
a(I3
g128
tp583
a(I0
g253
tp584
a(I1
g132
tp585
a(I2
g128
tp586
a(I3
g130
tp587
a(I0
g253
tp588
a(I1
g128
tp589
a(I2
g253
tp590
a(I3
g151
tp591
a(I0
g253
tp592
a(I1
g128
tp593
a(I2
g253
tp594
a(I3
g151
tp595
a(I0
g253
tp596
a(I1
g130
tp597
a(I2
g253
tp598
a(I3
g132
tp599
a(I0
g253
tp600
a(I1
g130
tp601
a(I2
g253
tp602
a(I3
g132
tp603
a(I0
g253
tp604
a(I1
g130
tp605
a(I2
g253
tp606
a(I3
g132
tp607
a(I0
g253
tp608
a(I1
g130
tp609
a(I2
g253
tp610
a(I3
g132
tp611
a(I0
g253
tp612
a(I1
g128
tp613
a(I2
g253
tp614
a(I3
g128
tp615
a(I0
g253
tp616
a(I1
g132
tp617
a(I2
g128
tp618
a(I3
g128
tp619
a(I0
g253
tp620
a(I1
g151
tp621
a(I2
g253
tp622
a(I3
g151
tp623
a(I0
g253
tp624
a(I1
g132
tp625
a(I2
g151
tp626
a(I3
g151
tp627
a(I0
g253
tp628
a(I1
g132
tp629
a(I2
g253
tp630
a(I3
g151
tp631
a(I0
g253
tp632
a(I1
g132
tp633
a(I2
g151
tp634
a(I3
g132
tp635
a(I0
g253
tp636
a(I1
g151
tp637
a(I2
g253
tp638
a(I3
g132
tp639
a(I0
g253
tp640
a(I1
g151
tp641
a(I2
g151
tp642
a(I3
g128
tp643
a(I0
g253
tp644
a(I1
g130
tp645
a(I2
g128
tp646
a(I3
g128
tp647
a(I0
g253
tp648
a(I1
g130
tp649
a(I2
g253
tp650
a(I3
g128
tp651
a(I0
g253
tp652
a(I1
g130
tp653
a(I2
g128
tp654
a(I3
g151
tp655
a(I0
g253
tp656
a(I1
g130
tp657
a(I2
g151
tp658
a(I3
g151
tp659
a(I0
g253
tp660
a(I1
g132
tp661
a(I2
g253
tp662
a(I3
g151
tp663
a(I0
g253
tp664
a(I1
g132
tp665
a(I2
g151
tp666
a(I3
g130
tp667
a(I0
g253
tp668
a(I1
g132
tp669
a(I2
g253
tp670
a(I3
g130
tp671
a(I0
g253
tp672
a(I1
g132
tp673
a(I2
g253
tp674
a(I3
g151
tp675
a(I0
g253
tp676
a(I1
g128
tp677
a(I2
g253
tp678
a(I3
g130
tp679
a(I0
g253
tp680
a(I1
g128
tp681
a(I2
g128
tp682
a(I3
g130
tp683
a(I0
g253
tp684
a(I1
g128
tp685
a(I2
g253
tp686
a(I3
g130
tp687
a(I0
g253
tp688
a(I1
g132
tp689
a(I2
g253
tp690
a(I3
g130
tp691
a(I0
g253
tp692
a(I1
g132
tp693
a(I2
g253
tp694
a(I3
g128
tp695
a(I0
g253
tp696
a(I1
g128
tp697
a(I2
g128
tp698
a(I3
g128
tp699
a(I0
g253
tp700
a(I1
g128
tp701
a(I2
g128
tp702
a(I3
g128
tp703
a(I0
g253
tp704
a(I1
g132
tp705
a(I2
g128
tp706
a(I3
g128
tp707
a(I0
g253
tp708
a(I1
g128
tp709
a(I2
g128
tp710
a(I3
g132
tp711
a(I0
g253
tp712
a(I1
g128
tp713
a(I2
g253
tp714
a(I3
g132
tp715
a(I0
g253
tp716
a(I1
g130
tp717
a(I2
g253
tp718
a(I3
g130
tp719
a(I0
g253
tp720
a(I1
g128
tp721
a(I2
g128
tp722
a(I3
g151
tp723
a(I0
g253
tp724
a(I1
g128
tp725
a(I2
g253
tp726
a(I3
g151
tp727
a(I0
g253
tp728
a(I1
g132
tp729
a(I2
g151
tp730
a(I3
g132
tp731
a(I0
g253
tp732
asS'length'
p733
I600
sS'agents'
p734
(lp735
(igame
Agent
p736
(dp737
S'index'
p738
I0
sba(igame
Agent
p739
(dp740
g738
I0
sba(igame
Agent
p741
(dp742
g738
I0
sba(igame
Agent
p743
(dp744
g738
I0
sbasS'redTeamName'
p745
S'PacStreetsPac'
p746
s.