(dp1
S'startingTeam'
p2
I0
sS'layout'
p3
(ilayout
Layout
p4
(dp5
S'capsules'
p6
(lp7
(I25
I2
tp8
a(I26
I2
tp9
a(I7
I15
tp10
a(I8
I15
tp11
asS'numGhosts'
p12
I4
sS'food'
p13
(igame
Grid
p14
(dp15
S'CELLS_PER_INT'
p16
I30
sS'width'
p17
I34
sS'data'
p18
(lp19
(lp20
I00
aI00
aI00
aI00
aI00
aI00
aI00
aI00
aI00
aI00
aI00
aI00
aI00
aI00
aI00
aI00
aI00
aI00
aa(lp21
I00
aI00
aI00
aI00
aI00
aI00
aI00
aI00
aI00
aI00
aI00
aI00
aI00
aI00
aI00
aI00
aI00
aI00
aa(lp22
I00
aI00
aI00
aI00
aI00
aI00
aI00
aI00
aI00
aI00
aI00
aI00
aI00
aI00
aI00
aI00
aI00
aI00
aa(lp23
I00
aI00
aI00
aI00
aI00
aI01
aI00
aI01
aI01
aI00
aI01
aI00
aI00
aI00
aI00
aI00
aI00
aI00
aa(lp24
I00
aI00
aI00
aI00
aI00
aI00
aI00
aI00
aI00
aI00
aI00
aI00
aI00
aI00
aI00
aI00
aI00
aI00
aa(lp25
I00
aI00
aI00
aI00
aI00
aI00
aI00
aI00
aI00
aI00
aI00
aI00
aI00
aI00
aI01
aI00
aI00
aI00
aa(lp26
I00
aI00
aI01
aI00
aI00
aI00
aI00
aI00
aI00
aI01
aI01
aI00
aI01
aI00
aI00
aI00
aI01
aI00
aa(lp27
I00
aI00
aI00
aI00
aI00
aI00
aI00
aI00
aI00
aI01
aI00
aI00
aI00
aI00
aI00
aI00
aI01
aI00
aa(lp28
I00
aI01
aI01
aI01
aI00
aI01
aI00
aI00
aI00
aI00
aI00
aI00
aI00
aI00
aI00
aI00
aI00
aI00
aa(lp29
I00
aI01
aI00
aI00
aI00
aI01
aI00
aI01
aI00
aI00
aI00
aI00
aI00
aI00
aI00
aI01
aI01
aI00
aa(lp30
I00
aI00
aI00
aI00
aI00
aI00
aI00
aI00
aI00
aI00
aI00
aI00
aI00
aI00
aI00
aI00
aI00
aI00
aa(lp31
I00
aI00
aI00
aI00
aI01
aI00
aI00
aI00
aI00
aI00
aI01
aI00
aI01
aI00
aI00
aI00
aI00
aI00
aa(lp32
I00
aI00
aI00
aI00
aI00
aI00
aI00
aI01
aI00
aI00
aI00
aI00
aI00
aI00
aI00
aI00
aI00
aI00
aa(lp33
I00
aI00
aI00
aI00
aI00
aI00
aI00
aI00
aI00
aI00
aI01
aI00
aI00
aI00
aI00
aI00
aI00
aI00
aa(lp34
I00
aI01
aI01
aI00
aI00
aI00
aI00
aI00
aI00
aI00
aI00
aI01
aI01
aI00
aI00
aI00
aI00
aI00
aa(lp35
I00
aI00
aI00
aI00
aI00
aI00
aI00
aI00
aI00
aI00
aI00
aI00
aI00
aI00
aI00
aI00
aI00
aI00
aa(lp36
I00
aI00
aI00
aI00
aI00
aI00
aI00
aI00
aI00
aI00
aI00
aI00
aI00
aI00
aI00
aI00
aI00
aI00
aa(lp37
I00
aI00
aI00
aI00
aI00
aI00
aI00
aI00
aI00
aI00
aI00
aI00
aI00
aI00
aI00
aI00
aI00
aI00
aa(lp38
I00
aI00
aI00
aI00
aI00
aI00
aI00
aI00
aI00
aI00
aI00
aI00
aI00
aI00
aI00
aI00
aI00
aI00
aa(lp39
I00
aI00
aI00
aI00
aI00
aI01
aI01
aI00
aI00
aI00
aI00
aI00
aI00
aI00
aI00
aI01
aI01
aI00
aa(lp40
I00
aI00
aI00
aI00
aI00
aI00
aI00
aI01
aI00
aI00
aI00
aI00
aI00
aI00
aI00
aI00
aI00
aI00
aa(lp41
I00
aI00
aI00
aI00
aI00
aI00
aI00
aI00
aI00
aI00
aI01
aI00
aI00
aI00
aI00
aI00
aI00
aI00
aa(lp42
I00
aI00
aI00
aI00
aI00
aI01
aI00
aI01
aI00
aI00
aI00
aI00
aI00
aI01
aI00
aI00
aI00
aI00
aa(lp43
I00
aI00
aI00
aI00
aI00
aI00
aI00
aI00
aI00
aI00
aI00
aI00
aI00
aI00
aI00
aI00
aI00
aI00
aa(lp44
I00
aI01
aI01
aI00
aI00
aI00
aI00
aI00
aI00
aI00
aI01
aI00
aI01
aI00
aI00
aI00
aI01
aI00
aa(lp45
I00
aI00
aI00
aI00
aI00
aI00
aI00
aI00
aI00
aI00
aI00
aI00
aI01
aI00
aI01
aI01
aI01
aI00
aa(lp46
I00
aI01
aI00
aI00
aI00
aI00
aI00
aI00
aI01
aI00
aI00
aI00
aI00
aI00
aI00
aI00
aI00
aI00
aa(lp47
I00
aI01
aI00
aI00
aI00
aI01
aI00
aI01
aI01
aI00
aI00
aI00
aI00
aI00
aI00
aI01
aI00
aI00
aa(lp48
I00
aI00
aI00
aI01
aI00
aI00
aI00
aI00
aI00
aI00
aI00
aI00
aI00
aI00
aI00
aI00
aI00
aI00
aa(lp49
I00
aI00
aI00
aI00
aI00
aI00
aI00
aI00
aI00
aI00
aI00
aI00
aI00
aI00
aI00
aI00
aI00
aI00
aa(lp50
I00
aI00
aI00
aI00
aI00
aI00
aI00
aI01
aI00
aI01
aI01
aI00
aI01
aI00
aI00
aI00
aI00
aI00
aa(lp51
I00
aI00
aI00
aI00
aI00
aI00
aI00
aI00
aI00
aI00
aI00
aI00
aI00
aI00
aI00
aI00
aI00
aI00
aa(lp52
I00
aI00
aI00
aI00
aI00
aI00
aI00
aI00
aI00
aI00
aI00
aI00
aI00
aI00
aI00
aI00
aI00
aI00
aa(lp53
I00
aI00
aI00
aI00
aI00
aI00
aI00
aI00
aI00
aI00
aI00
aI00
aI00
aI00
aI00
aI00
aI00
aI00
aasS'height'
p54
I18
sbsS'agentPositions'
p55
(lp56
(I00
(I1
I2
tp57
tp58
a(I00
(I32
I15
tp59
tp60
a(I00
(I1
I1
tp61
tp62
a(I00
(I32
I16
tp63
tp64
asg54
I18
sg17
I34
sS'walls'
p65
(igame
Grid
p66
(dp67
g16
I30
sg17
I34
sg18
(lp68
(lp69
I01
aI01
aI01
aI01
aI01
aI01
aI01
aI01
aI01
aI01
aI01
aI01
aI01
aI01
aI01
aI01
aI01
aI01
aa(lp70
I01
aI00
aI00
aI00
aI00
aI00
aI00
aI00
aI00
aI00
aI00
aI00
aI00
aI00
aI00
aI00
aI00
aI01
aa(lp71
I01
aI01
aI01
aI01
aI01
aI01
aI01
aI01
aI01
aI01
aI01
aI01
aI01
aI01
aI01
aI01
aI00
aI01
aa(lp72
I01
aI00
aI00
aI00
aI01
aI00
aI01
aI00
aI00
aI00
aI00
aI00
aI00
aI00
aI00
aI00
aI00
aI01
aa(lp73
I01
aI00
aI01
aI00
aI00
aI00
aI01
aI01
aI01
aI01
aI01
aI01
aI00
aI01
aI01
aI01
aI00
aI01
aa(lp74
I01
aI00
aI01
aI01
aI01
aI00
aI00
aI00
aI00
aI00
aI01
aI00
aI00
aI01
aI00
aI01
aI00
aI01
aa(lp75
I01
aI00
aI00
aI00
aI01
aI00
aI00
aI00
aI00
aI00
aI00
aI00
aI00
aI01
aI00
aI00
aI00
aI01
aa(lp76
I01
aI01
aI01
aI00
aI01
aI01
aI01
aI00
aI00
aI00
aI01
aI00
aI00
aI01
aI00
aI00
aI00
aI01
aa(lp77
I01
aI00
aI00
aI00
aI01
aI00
aI01
aI01
aI01
aI01
aI01
aI01
aI01
aI01
aI01
aI00
aI01
aI01
aa(lp78
I01
aI00
aI01
aI00
aI00
aI00
aI01
aI00
aI00
aI00
aI00
aI00
aI00
aI00
aI00
aI00
aI00
aI01
aa(lp79
I01
aI01
aI01
aI01
aI01
aI01
aI01
aI01
aI00
aI01
aI01
aI01
aI01
aI00
aI01
aI00
aI01
aI01
aa(lp80
I01
aI00
aI00
aI00
aI00
aI00
aI00
aI00
aI00
aI00
aI00
aI00
aI00
aI00
aI00
aI00
aI00
aI01
aa(lp81
I01
aI00
aI00
aI00
aI00
aI00
aI00
aI00
aI01
aI00
aI00
aI01
aI00
aI00
aI00
aI01
aI00
aI01
aa(lp82
I01
aI01
aI01
aI00
aI01
aI01
aI01
aI01
aI01
aI01
aI00
aI01
aI01
aI01
aI00
aI00
aI00
aI01
aa(lp83
I01
aI00
aI00
aI00
aI00
aI00
aI00
aI00
aI00
aI00
aI00
aI00
aI00
aI00
aI00
aI01
aI00
aI01
aa(lp84
I01
aI01
aI01
aI01
aI01
aI01
aI01
aI00
aI01
aI01
aI01
aI01
aI01
aI01
aI01
aI01
aI00
aI01
aa(lp85
I01
aI00
aI00
aI00
aI00
aI00
aI00
aI00
aI00
aI00
aI00
aI00
aI00
aI00
aI00
aI00
aI00
aI01
aa(lp86
I01
aI00
aI00
aI00
aI00
aI00
aI00
aI00
aI00
aI00
aI00
aI00
aI00
aI00
aI00
aI00
aI00
aI01
aa(lp87
I01
aI00
aI01
aI01
aI01
aI01
aI01
aI01
aI01
aI01
aI00
aI01
aI01
aI01
aI01
aI01
aI01
aI01
aa(lp88
I01
aI00
aI01
aI00
aI00
aI00
aI00
aI00
aI00
aI00
aI00
aI00
aI00
aI00
aI00
aI00
aI00
aI01
aa(lp89
I01
aI00
aI00
aI00
aI01
aI01
aI01
aI00
aI01
aI01
aI01
aI01
aI01
aI01
aI00
aI01
aI01
aI01
aa(lp90
I01
aI00
aI01
aI00
aI00
aI00
aI01
aI00
aI00
aI01
aI00
aI00
aI00
aI00
aI00
aI00
aI00
aI01
aa(lp91
I01
aI00
aI00
aI00
aI00
aI00
aI00
aI00
aI00
aI00
aI00
aI00
aI00
aI00
aI00
aI00
aI00
aI01
aa(lp92
I01
aI01
aI00
aI01
aI00
aI01
aI01
aI01
aI01
aI00
aI01
aI01
aI01
aI01
aI01
aI01
aI01
aI01
aa(lp93
I01
aI00
aI00
aI00
aI00
aI00
aI00
aI00
aI00
aI00
aI00
aI01
aI00
aI00
aI00
aI01
aI00
aI01
aa(lp94
I01
aI01
aI00
aI01
aI01
aI01
aI01
aI01
aI01
aI01
aI01
aI01
aI00
aI01
aI00
aI00
aI00
aI01
aa(lp95
I01
aI00
aI00
aI00
aI01
aI00
aI00
aI01
aI00
aI00
aI00
aI01
aI01
aI01
aI00
aI01
aI01
aI01
aa(lp96
I01
aI00
aI00
aI00
aI01
aI00
aI00
aI00
aI00
aI00
aI00
aI00
aI00
aI01
aI00
aI00
aI00
aI01
aa(lp97
I01
aI00
aI01
aI00
aI01
aI00
aI00
aI01
aI00
aI00
aI00
aI00
aI00
aI01
aI01
aI01
aI00
aI01
aa(lp98
I01
aI00
aI01
aI01
aI01
aI00
aI01
aI01
aI01
aI01
aI01
aI01
aI00
aI00
aI00
aI01
aI00
aI01
aa(lp99
I01
aI00
aI00
aI00
aI00
aI00
aI00
aI00
aI00
aI00
aI00
aI01
aI00
aI01
aI00
aI00
aI00
aI01
aa(lp100
I01
aI00
aI01
aI01
aI01
aI01
aI01
aI01
aI01
aI01
aI01
aI01
aI01
aI01
aI01
aI01
aI01
aI01
aa(lp101
I01
aI00
aI00
aI00
aI00
aI00
aI00
aI00
aI00
aI00
aI00
aI00
aI00
aI00
aI00
aI00
aI00
aI01
aa(lp102
I01
aI01
aI01
aI01
aI01
aI01
aI01
aI01
aI01
aI01
aI01
aI01
aI01
aI01
aI01
aI01
aI01
aI01
aasg54
I18
sbsS'totalFood'
p103
I60
sS'layoutText'
p104
(lp105
S'%%%%%%%%%%%%%%%%%%%%%%%%%%%%%%%%%%'
p106
aS'%     ..%.%       %.%  %..%    %4%'
p107
aS'% % %% oo.  % %%  %.%  %%.%.%% %2%'
p108
aS'% % %.  % %    %  %    % .  %  % %'
p109
aS'% % %%%%%    % %  % % .% %%%% %% %'
p110
aS'% %   . % %. %.%  % %  %..%   .% %'
p111
aS'% % %   % % %%.%  % %  %%%%  %%% %'
p112
aS'% %.%%.%% %. . %    %. %.%   %.% %'
p113
aS'% % % ..% %  % %  % %%   %   %.% %'
p114
aS'% %.%   %   %% %  % %  % %.. % % %'
p115
aS'% %.%   %.% .%    % . .% %%.%%.% %'
p116
aS'% %%%  %%%%  % %  %.%% % %   % % %'
p117
aS'% %.   %..%  % %  %.% .% % .   % %'
p118
aS'% %% %%%% %. % %  % %    %%%%% % %'
p119
aS'% %  %  . %    %  %    % %  .% % %'
p120
aS'%1% %%.%.%%  %.%  %% %  .oo %% % %'
p121
aS'%3%    %..%  %.%       %.%..     %'
p122
aS'%%%%%%%%%%%%%%%%%%%%%%%%%%%%%%%%%%'
p123
asbsS'blueTeamName'
p124
S'teamSnowman'
p125
sS'actions'
p126
(lp127
(I0
S'North'
p128
tp129
a(I1
S'South'
p130
tp131
a(I2
g128
tp132
a(I3
g130
tp133
a(I0
g128
tp134
a(I1
g130
tp135
a(I2
g128
tp136
a(I3
g130
tp137
a(I0
g128
tp138
a(I1
g130
tp139
a(I2
g128
tp140
a(I3
g130
tp141
a(I0
g128
tp142
a(I1
g130
tp143
a(I2
g128
tp144
a(I3
g130
tp145
a(I0
g128
tp146
a(I1
g130
tp147
a(I2
g128
tp148
a(I3
g130
tp149
a(I0
g128
tp150
a(I1
g130
tp151
a(I2
g128
tp152
a(I3
g130
tp153
a(I0
g128
tp154
a(I1
g130
tp155
a(I2
g128
tp156
a(I3
g130
tp157
a(I0
g128
tp158
a(I1
g130
tp159
a(I2
g128
tp160
a(I3
g130
tp161
a(I0
g128
tp162
a(I1
g130
tp163
a(I2
g128
tp164
a(I3
g130
tp165
a(I0
g128
tp166
a(I1
g130
tp167
a(I2
g128
tp168
a(I3
g130
tp169
a(I0
g128
tp170
a(I1
g130
tp171
a(I2
g128
tp172
a(I3
g130
tp173
a(I0
g128
tp174
a(I1
g130
tp175
a(I2
g128
tp176
a(I3
g130
tp177
a(I0
g128
tp178
a(I1
g130
tp179
a(I2
g128
tp180
a(I3
g130
tp181
a(I0
g128
tp182
a(I1
g130
tp183
a(I2
g128
tp184
a(I3
g130
tp185
a(I0
S'East'
p186
tp187
a(I1
S'West'
p188
tp189
a(I2
g128
tp190
a(I3
g130
tp191
a(I0
g186
tp192
a(I1
g188
tp193
a(I2
g186
tp194
a(I3
g188
tp195
a(I0
g186
tp196
a(I1
g188
tp197
a(I2
g186
tp198
a(I3
g188
tp199
a(I0
g186
tp200
a(I1
g188
tp201
a(I2
g186
tp202
a(I3
g188
tp203
a(I0
g186
tp204
a(I1
g188
tp205
a(I2
g186
tp206
a(I3
g188
tp207
a(I0
g130
tp208
a(I1
g188
tp209
a(I2
g186
tp210
a(I3
g188
tp211
a(I0
g186
tp212
a(I1
g128
tp213
a(I2
g130
tp214
a(I3
g188
tp215
a(I0
g186
tp216
a(I1
g188
tp217
a(I2
g186
tp218
a(I3
g186
tp219
a(I0
g186
tp220
a(I1
g188
tp221
a(I2
g186
tp222
a(I3
g188
tp223
a(I0
g130
tp224
a(I1
g188
tp225
a(I2
g186
tp226
a(I3
g186
tp227
a(I0
g130
tp228
a(I1
g188
tp229
a(I2
g186
tp230
a(I3
g188
tp231
a(I0
g186
tp232
a(I1
g130
tp233
a(I2
g186
tp234
a(I3
g186
tp235
a(I0
g186
tp236
a(I1
g188
tp237
a(I2
g130
tp238
a(I3
g188
tp239
a(I0
g130
tp240
a(I1
g188
tp241
a(I2
g130
tp242
a(I3
g186
tp243
a(I0
g130
tp244
a(I1
g188
tp245
a(I2
g130
tp246
a(I3
g188
tp247
a(I0
g130
tp248
a(I1
g188
tp249
a(I2
g130
tp250
a(I3
g186
tp251
a(I0
g186
tp252
a(I1
g188
tp253
a(I2
g130
tp254
a(I3
g188
tp255
a(I0
g186
tp256
a(I1
g188
tp257
a(I2
g186
tp258
a(I3
g186
tp259
a(I0
g186
tp260
a(I1
g128
tp261
a(I2
g186
tp262
a(I3
g188
tp263
a(I0
g130
tp264
a(I1
g128
tp265
a(I2
g186
tp266
a(I3
g186
tp267
a(I0
g130
tp268
a(I1
g128
tp269
a(I2
g130
tp270
a(I3
g188
tp271
a(I0
g130
tp272
a(I1
g128
tp273
a(I2
g130
tp274
a(I3
g186
tp275
a(I0
g186
tp276
a(I1
g128
tp277
a(I2
g130
tp278
a(I3
g188
tp279
a(I0
g186
tp280
a(I1
g186
tp281
a(I2
g186
tp282
a(I3
g186
tp283
a(I0
g128
tp284
a(I1
g128
tp285
a(I2
g186
tp286
a(I3
g188
tp287
a(I0
g128
tp288
a(I1
g128
tp289
a(I2
g130
tp290
a(I3
g186
tp291
a(I0
g128
tp292
a(I1
g188
tp293
a(I2
g186
tp294
a(I3
g188
tp295
a(I0
g128
tp296
a(I1
g130
tp297
a(I2
g130
tp298
a(I3
g186
tp299
a(I0
g186
tp300
a(I1
g188
tp301
a(I2
g188
tp302
a(I3
g188
tp303
a(I0
g130
tp304
a(I1
g188
tp305
a(I2
g128
tp306
a(I3
g186
tp307
a(I0
g186
tp308
a(I1
g128
tp309
a(I2
g128
tp310
a(I3
g188
tp311
a(I0
g186
tp312
a(I1
g128
tp313
a(I2
g188
tp314
a(I3
g186
tp315
a(I0
g130
tp316
a(I1
g128
tp317
a(I2
g188
tp318
a(I3
g188
tp319
a(I0
g130
tp320
a(I1
g188
tp321
a(I2
g128
tp322
a(I3
g186
tp323
a(I0
g130
tp324
a(I1
g188
tp325
a(I2
g128
tp326
a(I3
g188
tp327
a(I0
g130
tp328
a(I1
g188
tp329
a(I2
g128
tp330
a(I3
g186
tp331
a(I0
g128
tp332
a(I1
g128
tp333
a(I2
g188
tp334
a(I3
g188
tp335
a(I0
g128
tp336
a(I1
g128
tp337
a(I2
g188
tp338
a(I3
g186
tp339
a(I0
g128
tp340
a(I1
g128
tp341
a(I2
g188
tp342
a(I3
g188
tp343
a(I0
g128
tp344
a(I1
g128
tp345
a(I2
g128
tp346
a(I3
g186
tp347
a(I0
g188
tp348
a(I1
g128
tp349
a(I2
g128
tp350
a(I3
g188
tp351
a(I0
g188
tp352
a(I1
g188
tp353
a(I2
g128
tp354
a(I3
g186
tp355
a(I0
g188
tp356
a(I1
g188
tp357
a(I2
g128
tp358
a(I3
g188
tp359
a(I0
g186
tp360
a(I1
g128
tp361
a(I2
g128
tp362
a(I3
g186
tp363
a(I0
g186
tp364
a(I1
g130
tp365
a(I2
g188
tp366
a(I3
g188
tp367
a(I0
g186
tp368
a(I1
g188
tp369
a(I2
g188
tp370
a(I3
g186
tp371
a(I0
g130
tp372
a(I1
g188
tp373
a(I2
g188
tp374
a(I3
g188
tp375
a(I0
g130
tp376
a(I1
g128
tp377
a(I2
g188
tp378
a(I3
g186
tp379
a(I0
g130
tp380
a(I1
g188
tp381
a(I2
g188
tp382
a(I3
g188
tp383
a(I0
g186
tp384
a(I1
g130
tp385
a(I2
g128
tp386
a(I3
g128
tp387
a(I0
g188
tp388
a(I1
g186
tp389
a(I2
g128
tp390
a(I3
g130
tp391
a(I0
g128
tp392
a(I1
g186
tp393
a(I2
g128
tp394
a(I3
g186
tp395
a(I0
g128
tp396
a(I1
g186
tp397
a(I2
g128
tp398
a(I3
g188
tp399
a(I0
g128
tp400
a(I1
g186
tp401
a(I2
g128
tp402
a(I3
g186
tp403
a(I0
g188
tp404
a(I1
g186
tp405
a(I2
g128
tp406
a(I3
g188
tp407
a(I0
g188
tp408
a(I1
g128
tp409
a(I2
g128
tp410
a(I3
g186
tp411
a(I0
g130
tp412
a(I1
g186
tp413
a(I2
g128
tp414
a(I3
g188
tp415
a(I0
g188
tp416
a(I1
g186
tp417
a(I2
g128
tp418
a(I3
g186
tp419
a(I0
g186
tp420
a(I1
g186
tp421
a(I2
g128
tp422
a(I3
g188
tp423
a(I0
g128
tp424
a(I1
g186
tp425
a(I2
g128
tp426
a(I3
g186
tp427
a(I0
g186
tp428
a(I1
g186
tp429
a(I2
g128
tp430
a(I3
g188
tp431
a(I0
g186
tp432
a(I1
g186
tp433
a(I2
g128
tp434
a(I3
g186
tp435
a(I0
g130
tp436
a(I1
g188
tp437
a(I2
g128
tp438
a(I3
g188
tp439
a(I0
g130
tp440
a(I1
g188
tp441
a(I2
g128
tp442
a(I3
g186
tp443
a(I0
g130
tp444
a(I1
g188
tp445
a(I2
g186
tp446
a(I3
g188
tp447
a(I0
g130
tp448
a(I1
g188
tp449
a(I2
g186
tp450
a(I3
g186
tp451
a(I0
g130
tp452
a(I1
g130
tp453
a(I2
g186
tp454
a(I3
g188
tp455
a(I0
g128
tp456
a(I1
g130
tp457
a(I2
g186
tp458
a(I3
g186
tp459
a(I0
g128
tp460
a(I1
g186
tp461
a(I2
g186
tp462
a(I3
g188
tp463
a(I0
g128
tp464
a(I1
g130
tp465
a(I2
g186
tp466
a(I3
g186
tp467
a(I0
g128
tp468
a(I1
g130
tp469
a(I2
g130
tp470
a(I3
g188
tp471
a(I0
g128
tp472
a(I1
g130
tp473
a(I2
g186
tp474
a(I3
g186
tp475
a(I0
g188
tp476
a(I1
g130
tp477
a(I2
g186
tp478
a(I3
g188
tp479
a(I0
g188
tp480
a(I1
g188
tp481
a(I2
g130
tp482
a(I3
g186
tp483
a(I0
g130
tp484
a(I1
g188
tp485
a(I2
g130
tp486
a(I3
g188
tp487
a(I0
g130
tp488
a(I1
g130
tp489
a(I2
g186
tp490
a(I3
g186
tp491
a(I0
g130
tp492
a(I1
g188
tp493
a(I2
g186
tp494
a(I3
g188
tp495
a(I0
g188
tp496
a(I1
g130
tp497
a(I2
g130
tp498
a(I3
g186
tp499
a(I0
g186
tp500
a(I1
g130
tp501
a(I2
g130
tp502
a(I3
g188
tp503
a(I0
g128
tp504
a(I1
g186
tp505
a(I2
g130
tp506
a(I3
g186
tp507
a(I0
g128
tp508
a(I1
g130
tp509
a(I2
g130
tp510
a(I3
g188
tp511
a(I0
g128
tp512
a(I1
g130
tp513
a(I2
g130
tp514
a(I3
g186
tp515
a(I0
g186
tp516
a(I1
g130
tp517
a(I2
g130
tp518
a(I3
g188
tp519
a(I0
g186
tp520
a(I1
g188
tp521
a(I2
g130
tp522
a(I3
g186
tp523
a(I0
g128
tp524
a(I1
g130
tp525
a(I2
g130
tp526
a(I3
g188
tp527
a(I0
g128
tp528
a(I1
g186
tp529
a(I2
g130
tp530
a(I3
g186
tp531
a(I0
g128
tp532
a(I1
g186
tp533
a(I2
g130
tp534
a(I3
g188
tp535
a(I0
g128
tp536
a(I1
g186
tp537
a(I2
g186
tp538
a(I3
g186
tp539
a(I0
g128
tp540
a(I1
g130
tp541
a(I2
g186
tp542
a(I3
g188
tp543
a(I0
g130
tp544
a(I1
g130
tp545
a(I2
g186
tp546
a(I3
g186
tp547
a(I0
g130
tp548
a(I1
g128
tp549
a(I2
g130
tp550
a(I3
g188
tp551
a(I0
g130
tp552
a(I1
g130
tp553
a(I2
g128
tp554
a(I3
g186
tp555
a(I0
g130
tp556
a(I1
g130
tp557
a(I2
g128
tp558
a(I3
g188
tp559
a(I0
g130
tp560
a(I1
g130
tp561
a(I2
g128
tp562
a(I3
g186
tp563
a(I0
g188
tp564
a(I1
g130
tp565
a(I2
g128
tp566
a(I3
g188
tp567
a(I0
g188
tp568
a(I1
g130
tp569
a(I2
g128
tp570
a(I3
g186
tp571
a(I0
g188
tp572
a(I1
g130
tp573
a(I2
g186
tp574
a(I3
g188
tp575
a(I0
g186
tp576
a(I1
g130
tp577
a(I2
g186
tp578
a(I3
g186
tp579
a(I0
g186
tp580
a(I1
g130
tp581
a(I2
g130
tp582
a(I3
g188
tp583
a(I0
g186
tp584
a(I1
g130
tp585
a(I2
g130
tp586
a(I3
g186
tp587
a(I0
g128
tp588
a(I1
g130
tp589
a(I2
g130
tp590
a(I3
g188
tp591
a(I0
g128
tp592
a(I1
g130
tp593
a(I2
g130
tp594
a(I3
g186
tp595
a(I0
g128
tp596
a(I1
g130
tp597
a(I2
g130
tp598
a(I3
g188
tp599
a(I0
g128
tp600
a(I1
g130
tp601
a(I2
g130
tp602
a(I3
g186
tp603
a(I0
g128
tp604
a(I1
g130
tp605
a(I2
S'Stop'
p606
tp607
a(I3
g188
tp608
a(I0
g128
tp609
a(I1
g188
tp610
a(I2
g606
tp611
a(I3
g186
tp612
a(I0
g130
tp613
a(I1
g188
tp614
a(I2
g606
tp615
a(I3
g188
tp616
a(I0
g130
tp617
a(I1
g188
tp618
a(I2
g606
tp619
a(I3
g186
tp620
a(I0
g130
tp621
a(I1
g188
tp622
a(I2
g606
tp623
a(I3
g188
tp624
a(I0
g130
tp625
a(I1
g188
tp626
a(I2
g606
tp627
a(I3
g186
tp628
a(I0
g130
tp629
a(I1
g128
tp630
a(I2
g606
tp631
a(I3
g188
tp632
a(I0
g130
tp633
a(I1
g188
tp634
a(I2
g606
tp635
a(I3
g186
tp636
a(I0
g188
tp637
a(I1
g188
tp638
a(I2
g606
tp639
a(I3
g188
tp640
a(I0
g188
tp641
a(I1
g188
tp642
a(I2
g606
tp643
a(I3
g186
tp644
a(I0
g188
tp645
a(I1
g188
tp646
a(I2
g606
tp647
a(I3
g188
tp648
a(I0
g186
tp649
a(I1
g188
tp650
a(I2
g606
tp651
a(I3
g186
tp652
a(I0
g186
tp653
a(I1
g130
tp654
a(I2
g606
tp655
a(I3
g188
tp656
a(I0
g186
tp657
a(I1
g188
tp658
a(I2
g606
tp659
a(I3
g186
tp660
a(I0
g128
tp661
a(I1
g188
tp662
a(I2
g606
tp663
a(I3
g188
tp664
a(I0
g128
tp665
a(I1
g188
tp666
a(I2
g606
tp667
a(I3
g186
tp668
a(I0
g128
tp669
a(I1
g188
tp670
a(I2
g128
tp671
a(I3
g188
tp672
a(I0
g128
tp673
a(I1
g188
tp674
a(I2
g128
tp675
a(I3
g186
tp676
a(I0
g186
tp677
a(I1
g128
tp678
a(I2
g128
tp679
a(I3
g188
tp680
a(I0
g186
tp681
a(I1
g128
tp682
a(I2
g128
tp683
a(I3
g128
tp684
a(I0
g186
tp685
a(I1
g128
tp686
a(I2
g128
tp687
a(I3
g188
tp688
a(I0
g130
tp689
a(I1
g128
tp690
a(I2
g128
tp691
a(I3
g188
tp692
a(I0
g188
tp693
a(I1
g188
tp694
a(I2
g186
tp695
a(I3
g128
tp696
a(I0
g128
tp697
a(I1
g128
tp698
a(I2
g128
tp699
a(I3
g128
tp700
a(I0
g188
tp701
a(I1
g128
tp702
a(I2
g128
tp703
a(I3
g188
tp704
a(I0
g188
tp705
a(I1
g188
tp706
a(I2
g130
tp707
a(I3
g188
tp708
a(I0
g130
tp709
a(I1
g188
tp710
a(I2
g188
tp711
a(I3
g128
tp712
a(I0
g130
tp713
a(I1
g130
tp714
a(I2
g130
tp715
a(I3
g188
tp716
a(I0
g130
tp717
a(I1
g130
tp718
a(I2
g188
tp719
a(I3
g186
tp720
a(I0
g130
tp721
a(I1
g130
tp722
a(I2
g188
tp723
a(I3
g128
tp724
a(I0
g188
tp725
a(I1
g130
tp726
a(I2
g130
tp727
a(I3
g128
tp728
a(I0
g188
tp729
a(I1
g188
tp730
a(I2
g130
tp731
a(I3
g128
tp732
asS'length'
p733
I600
sS'agents'
p734
(lp735
(igame
Agent
p736
(dp737
S'index'
p738
I0
sba(igame
Agent
p739
(dp740
g738
I0
sba(igame
Agent
p741
(dp742
g738
I0
sba(igame
Agent
p743
(dp744
g738
I0
sbasS'redTeamName'
p745
S'PacStreetsPac'
p746
s.