(dp1
S'startingTeam'
p2
I1
sS'layout'
p3
(ilayout
Layout
p4
(dp5
S'capsules'
p6
(lp7
(I14
I5
tp8
a(I23
I6
tp9
a(I10
I11
tp10
a(I19
I12
tp11
asS'numGhosts'
p12
I4
sS'food'
p13
(igame
Grid
p14
(dp15
S'CELLS_PER_INT'
p16
I30
sS'width'
p17
I34
sS'data'
p18
(lp19
(lp20
I00
aI00
aI00
aI00
aI00
aI00
aI00
aI00
aI00
aI00
aI00
aI00
aI00
aI00
aI00
aI00
aI00
aI00
aa(lp21
I00
aI00
aI00
aI00
aI00
aI00
aI00
aI00
aI00
aI00
aI00
aI00
aI00
aI00
aI00
aI00
aI00
aI00
aa(lp22
I00
aI00
aI00
aI00
aI00
aI00
aI00
aI00
aI00
aI00
aI00
aI00
aI00
aI00
aI00
aI00
aI00
aI00
aa(lp23
I00
aI00
aI00
aI00
aI00
aI00
aI00
aI00
aI00
aI00
aI00
aI00
aI00
aI00
aI00
aI00
aI00
aI00
aa(lp24
I00
aI00
aI00
aI00
aI00
aI00
aI00
aI00
aI00
aI00
aI00
aI00
aI00
aI00
aI00
aI00
aI00
aI00
aa(lp25
I00
aI00
aI00
aI00
aI00
aI00
aI00
aI00
aI00
aI00
aI00
aI00
aI00
aI00
aI00
aI00
aI00
aI00
aa(lp26
I00
aI00
aI00
aI00
aI00
aI00
aI00
aI00
aI00
aI00
aI00
aI00
aI00
aI00
aI00
aI00
aI00
aI00
aa(lp27
I00
aI01
aI01
aI00
aI01
aI01
aI00
aI01
aI00
aI00
aI01
aI00
aI00
aI00
aI00
aI00
aI01
aI00
aa(lp28
I00
aI00
aI00
aI00
aI00
aI00
aI00
aI00
aI00
aI00
aI01
aI01
aI00
aI00
aI01
aI00
aI01
aI00
aa(lp29
I00
aI00
aI00
aI00
aI01
aI00
aI00
aI00
aI01
aI00
aI00
aI00
aI00
aI00
aI00
aI00
aI00
aI00
aa(lp30
I00
aI00
aI00
aI00
aI00
aI01
aI00
aI00
aI00
aI01
aI00
aI00
aI00
aI00
aI00
aI01
aI01
aI00
aa(lp31
I00
aI00
aI00
aI00
aI01
aI00
aI00
aI00
aI00
aI00
aI00
aI00
aI00
aI00
aI00
aI00
aI00
aI00
aa(lp32
I00
aI00
aI01
aI01
aI01
aI00
aI00
aI00
aI00
aI00
aI00
aI00
aI00
aI00
aI00
aI01
aI01
aI00
aa(lp33
I00
aI00
aI00
aI00
aI00
aI00
aI00
aI00
aI00
aI00
aI00
aI00
aI00
aI00
aI00
aI00
aI00
aI00
aa(lp34
I00
aI00
aI01
aI00
aI00
aI00
aI00
aI00
aI01
aI00
aI01
aI00
aI01
aI01
aI00
aI01
aI01
aI00
aa(lp35
I00
aI00
aI00
aI00
aI00
aI00
aI00
aI00
aI00
aI00
aI00
aI00
aI00
aI00
aI00
aI00
aI00
aI00
aa(lp36
I00
aI00
aI00
aI00
aI00
aI00
aI00
aI00
aI00
aI00
aI00
aI00
aI00
aI00
aI00
aI00
aI00
aI00
aa(lp37
I00
aI00
aI00
aI00
aI00
aI00
aI00
aI00
aI00
aI00
aI00
aI00
aI00
aI00
aI00
aI00
aI00
aI00
aa(lp38
I00
aI00
aI00
aI00
aI00
aI00
aI00
aI00
aI00
aI00
aI00
aI00
aI00
aI00
aI00
aI00
aI00
aI00
aa(lp39
I00
aI01
aI01
aI00
aI01
aI01
aI00
aI01
aI00
aI01
aI00
aI00
aI00
aI00
aI00
aI01
aI00
aI00
aa(lp40
I00
aI00
aI00
aI00
aI00
aI00
aI00
aI00
aI00
aI00
aI00
aI00
aI00
aI00
aI00
aI00
aI00
aI00
aa(lp41
I00
aI01
aI01
aI00
aI00
aI00
aI00
aI00
aI00
aI00
aI00
aI00
aI00
aI01
aI01
aI01
aI00
aI00
aa(lp42
I00
aI00
aI00
aI00
aI00
aI00
aI00
aI00
aI00
aI00
aI00
aI00
aI00
aI01
aI00
aI00
aI00
aI00
aa(lp43
I00
aI01
aI01
aI00
aI00
aI00
aI00
aI00
aI01
aI00
aI00
aI00
aI01
aI00
aI00
aI00
aI00
aI00
aa(lp44
I00
aI00
aI00
aI00
aI00
aI00
aI00
aI00
aI00
aI01
aI00
aI00
aI00
aI01
aI00
aI00
aI00
aI00
aa(lp45
I00
aI01
aI00
aI01
aI00
aI00
aI01
aI01
aI00
aI00
aI00
aI00
aI00
aI00
aI00
aI00
aI00
aI00
aa(lp46
I00
aI01
aI00
aI00
aI00
aI00
aI00
aI01
aI00
aI00
aI01
aI00
aI01
aI01
aI00
aI01
aI01
aI00
aa(lp47
I00
aI00
aI00
aI00
aI00
aI00
aI00
aI00
aI00
aI00
aI00
aI00
aI00
aI00
aI00
aI00
aI00
aI00
aa(lp48
I00
aI00
aI00
aI00
aI00
aI00
aI00
aI00
aI00
aI00
aI00
aI00
aI00
aI00
aI00
aI00
aI00
aI00
aa(lp49
I00
aI00
aI00
aI00
aI00
aI00
aI00
aI00
aI00
aI00
aI00
aI00
aI00
aI00
aI00
aI00
aI00
aI00
aa(lp50
I00
aI00
aI00
aI00
aI00
aI00
aI00
aI00
aI00
aI00
aI00
aI00
aI00
aI00
aI00
aI00
aI00
aI00
aa(lp51
I00
aI00
aI00
aI00
aI00
aI00
aI00
aI00
aI00
aI00
aI00
aI00
aI00
aI00
aI00
aI00
aI00
aI00
aa(lp52
I00
aI00
aI00
aI00
aI00
aI00
aI00
aI00
aI00
aI00
aI00
aI00
aI00
aI00
aI00
aI00
aI00
aI00
aa(lp53
I00
aI00
aI00
aI00
aI00
aI00
aI00
aI00
aI00
aI00
aI00
aI00
aI00
aI00
aI00
aI00
aI00
aI00
aasS'height'
p54
I18
sbsS'agentPositions'
p55
(lp56
(I00
(I1
I2
tp57
tp58
a(I00
(I32
I15
tp59
tp60
a(I00
(I1
I1
tp61
tp62
a(I00
(I32
I16
tp63
tp64
asg54
I18
sg17
I34
sS'walls'
p65
(igame
Grid
p66
(dp67
g16
I30
sg17
I34
sg18
(lp68
(lp69
I01
aI01
aI01
aI01
aI01
aI01
aI01
aI01
aI01
aI01
aI01
aI01
aI01
aI01
aI01
aI01
aI01
aI01
aa(lp70
I01
aI00
aI00
aI00
aI00
aI00
aI00
aI00
aI00
aI00
aI00
aI00
aI00
aI00
aI00
aI00
aI00
aI01
aa(lp71
I01
aI01
aI01
aI01
aI01
aI01
aI01
aI01
aI01
aI01
aI01
aI01
aI01
aI01
aI01
aI01
aI00
aI01
aa(lp72
I01
aI00
aI00
aI00
aI00
aI00
aI00
aI00
aI00
aI00
aI00
aI00
aI00
aI00
aI00
aI00
aI00
aI01
aa(lp73
I01
aI00
aI01
aI01
aI01
aI01
aI01
aI01
aI01
aI01
aI01
aI01
aI01
aI01
aI01
aI01
aI01
aI01
aa(lp74
I01
aI00
aI00
aI00
aI00
aI00
aI00
aI00
aI00
aI00
aI00
aI00
aI00
aI00
aI00
aI00
aI00
aI01
aa(lp75
I01
aI01
aI01
aI01
aI01
aI01
aI01
aI01
aI01
aI01
aI01
aI01
aI01
aI01
aI01
aI01
aI00
aI01
aa(lp76
I01
aI00
aI00
aI01
aI00
aI00
aI00
aI00
aI00
aI01
aI00
aI01
aI00
aI00
aI00
aI00
aI00
aI01
aa(lp77
I01
aI00
aI01
aI01
aI01
aI01
aI01
aI01
aI00
aI01
aI00
aI00
aI00
aI01
aI00
aI01
aI00
aI01
aa(lp78
I01
aI00
aI00
aI01
aI00
aI01
aI00
aI00
aI00
aI01
aI01
aI01
aI00
aI01
aI01
aI01
aI01
aI01
aa(lp79
I01
aI01
aI00
aI01
aI00
aI00
aI00
aI01
aI00
aI00
aI00
aI00
aI00
aI00
aI00
aI00
aI00
aI01
aa(lp80
I01
aI00
aI00
aI01
aI00
aI01
aI01
aI01
aI01
aI01
aI01
aI01
aI01
aI01
aI01
aI01
aI01
aI01
aa(lp81
I01
aI00
aI00
aI00
aI00
aI00
aI00
aI00
aI00
aI00
aI00
aI00
aI00
aI00
aI00
aI00
aI00
aI01
aa(lp82
I01
aI01
aI00
aI01
aI01
aI00
aI01
aI01
aI01
aI01
aI01
aI01
aI01
aI01
aI01
aI00
aI01
aI01
aa(lp83
I01
aI00
aI00
aI00
aI00
aI00
aI00
aI00
aI00
aI00
aI00
aI01
aI00
aI00
aI00
aI00
aI00
aI01
aa(lp84
I01
aI00
aI01
aI00
aI01
aI01
aI01
aI01
aI01
aI00
aI01
aI01
aI01
aI01
aI01
aI01
aI01
aI01
aa(lp85
I01
aI00
aI00
aI00
aI00
aI00
aI00
aI00
aI00
aI00
aI00
aI00
aI00
aI00
aI00
aI00
aI00
aI01
aa(lp86
I01
aI00
aI00
aI00
aI00
aI00
aI00
aI00
aI00
aI00
aI00
aI00
aI00
aI00
aI00
aI00
aI00
aI01
aa(lp87
I01
aI01
aI01
aI01
aI01
aI01
aI01
aI01
aI00
aI01
aI01
aI01
aI01
aI01
aI00
aI01
aI00
aI01
aa(lp88
I01
aI00
aI00
aI00
aI00
aI00
aI01
aI00
aI00
aI00
aI00
aI00
aI00
aI00
aI00
aI00
aI00
aI01
aa(lp89
I01
aI01
aI00
aI01
aI01
aI01
aI01
aI01
aI01
aI01
aI01
aI01
aI00
aI01
aI01
aI00
aI01
aI01
aa(lp90
I01
aI00
aI00
aI00
aI00
aI00
aI00
aI00
aI00
aI00
aI00
aI00
aI00
aI00
aI00
aI00
aI00
aI01
aa(lp91
I01
aI01
aI01
aI01
aI01
aI01
aI01
aI01
aI01
aI01
aI01
aI01
aI01
aI00
aI01
aI00
aI00
aI01
aa(lp92
I01
aI00
aI00
aI00
aI00
aI00
aI00
aI00
aI00
aI00
aI01
aI00
aI00
aI00
aI01
aI00
aI01
aI01
aa(lp93
I01
aI01
aI01
aI01
aI01
aI00
aI01
aI01
aI01
aI00
aI00
aI00
aI01
aI00
aI01
aI00
aI00
aI01
aa(lp94
I01
aI00
aI01
aI00
aI01
aI00
aI00
aI00
aI01
aI00
aI01
aI01
aI01
aI01
aI01
aI01
aI00
aI01
aa(lp95
I01
aI00
aI00
aI00
aI00
aI00
aI01
aI00
aI01
aI00
aI00
aI00
aI00
aI00
aI01
aI00
aI00
aI01
aa(lp96
I01
aI00
aI01
aI01
aI01
aI01
aI01
aI01
aI01
aI01
aI01
aI01
aI01
aI01
aI01
aI01
aI01
aI01
aa(lp97
I01
aI00
aI00
aI00
aI00
aI00
aI00
aI00
aI00
aI00
aI00
aI00
aI00
aI00
aI00
aI00
aI00
aI01
aa(lp98
I01
aI01
aI01
aI01
aI01
aI01
aI01
aI01
aI01
aI01
aI01
aI01
aI01
aI01
aI01
aI01
aI00
aI01
aa(lp99
I01
aI00
aI00
aI00
aI00
aI00
aI00
aI00
aI00
aI00
aI00
aI00
aI00
aI00
aI00
aI00
aI00
aI01
aa(lp100
I01
aI00
aI01
aI01
aI01
aI01
aI01
aI01
aI01
aI01
aI01
aI01
aI01
aI01
aI01
aI01
aI01
aI01
aa(lp101
I01
aI00
aI00
aI00
aI00
aI00
aI00
aI00
aI00
aI00
aI00
aI00
aI00
aI00
aI00
aI00
aI00
aI01
aa(lp102
I01
aI01
aI01
aI01
aI01
aI01
aI01
aI01
aI01
aI01
aI01
aI01
aI01
aI01
aI01
aI01
aI01
aI01
aasg54
I18
sbsS'totalFood'
p103
I60
sS'layoutText'
p104
(lp105
S'%%%%%%%%%%%%%%%%%%%%%%%%%%%%%%%%%%'
p106
aS'%   %  ..%.%.%.%    %  %  .%   %4%'
p107
aS'% % % % %%.%. .%  %. .   %.% % %2%'
p108
aS'% % % % .% % % %    %.%%%%%% % % %'
p109
aS'% % % % %% % %.%  % %.. .%.% % % %'
p110
aS'% % % %    % %.%  %o  %.%%.% % % %'
p111
aS'% % % %%.%o% %%%  % % %  % % % % %'
p112
aS'% % % %..% % %.%  % % %% %.% % % %'
p113
aS'% % % %%%%.% %    %.% % .  % % % %'
p114
aS'% % % %  . % %.%    % %.%%%% % % %'
p115
aS'% % % %.% %% % %  %.% % %..% % % %'
p116
aS'% % % % %  % % %  %%% %o%.%% % % %'
p117
aS'% % % %.%%.%  o%  %.% %    % % % %'
p118
aS'% % % %.%. ..% %  %.% % %% % % % %'
p119
aS'% % % %%%%%%.%    % % % %. % % % %'
p120
aS'%1% % %.%   . .%  %. .%.%% % % % %'
p121
aS'%3%   %.  %  %    %.%.%.%..  %   %'
p122
aS'%%%%%%%%%%%%%%%%%%%%%%%%%%%%%%%%%%'
p123
asbsS'blueTeamName'
p124
S'Gzpeezy'
p125
sS'actions'
p126
(lp127
(I1
S'South'
p128
tp129
a(I2
S'North'
p130
tp131
a(I3
g128
tp132
a(I0
g130
tp133
a(I1
g128
tp134
a(I2
g130
tp135
a(I3
g128
tp136
a(I0
g130
tp137
a(I1
g128
tp138
a(I2
g130
tp139
a(I3
g128
tp140
a(I0
g130
tp141
a(I1
g128
tp142
a(I2
g130
tp143
a(I3
g128
tp144
a(I0
g130
tp145
a(I1
g128
tp146
a(I2
g130
tp147
a(I3
g128
tp148
a(I0
g130
tp149
a(I1
g128
tp150
a(I2
g130
tp151
a(I3
g128
tp152
a(I0
g130
tp153
a(I1
g128
tp154
a(I2
g130
tp155
a(I3
g128
tp156
a(I0
g130
tp157
a(I1
g128
tp158
a(I2
g130
tp159
a(I3
g128
tp160
a(I0
g130
tp161
a(I1
g128
tp162
a(I2
g130
tp163
a(I3
g128
tp164
a(I0
g130
tp165
a(I1
g128
tp166
a(I2
g130
tp167
a(I3
g128
tp168
a(I0
g130
tp169
a(I1
g128
tp170
a(I2
g130
tp171
a(I3
g128
tp172
a(I0
g130
tp173
a(I1
g128
tp174
a(I2
g130
tp175
a(I3
g128
tp176
a(I0
g130
tp177
a(I1
g128
tp178
a(I2
g130
tp179
a(I3
g128
tp180
a(I0
g130
tp181
a(I1
g128
tp182
a(I2
g130
tp183
a(I3
g128
tp184
a(I0
g130
tp185
a(I1
S'West'
p186
tp187
a(I2
g130
tp188
a(I3
g128
tp189
a(I0
S'East'
p190
tp191
a(I1
g186
tp192
a(I2
g190
tp193
a(I3
g186
tp194
a(I0
g190
tp195
a(I1
g130
tp196
a(I2
g190
tp197
a(I3
g186
tp198
a(I0
g128
tp199
a(I1
g130
tp200
a(I2
g128
tp201
a(I3
g130
tp202
a(I0
g128
tp203
a(I1
g130
tp204
a(I2
g128
tp205
a(I3
g130
tp206
a(I0
g128
tp207
a(I1
g130
tp208
a(I2
g128
tp209
a(I3
g130
tp210
a(I0
g128
tp211
a(I1
g130
tp212
a(I2
g128
tp213
a(I3
g130
tp214
a(I0
g128
tp215
a(I1
g130
tp216
a(I2
g128
tp217
a(I3
g130
tp218
a(I0
g128
tp219
a(I1
g130
tp220
a(I2
g128
tp221
a(I3
g130
tp222
a(I0
g128
tp223
a(I1
g130
tp224
a(I2
g128
tp225
a(I3
g130
tp226
a(I0
g128
tp227
a(I1
g130
tp228
a(I2
g128
tp229
a(I3
g130
tp230
a(I0
g128
tp231
a(I1
g130
tp232
a(I2
g128
tp233
a(I3
g130
tp234
a(I0
g128
tp235
a(I1
g130
tp236
a(I2
g128
tp237
a(I3
g130
tp238
a(I0
g128
tp239
a(I1
g130
tp240
a(I2
g128
tp241
a(I3
g130
tp242
a(I0
g128
tp243
a(I1
g130
tp244
a(I2
g128
tp245
a(I3
g130
tp246
a(I0
g128
tp247
a(I1
g130
tp248
a(I2
g128
tp249
a(I3
g130
tp250
a(I0
g128
tp251
a(I1
g130
tp252
a(I2
g128
tp253
a(I3
g130
tp254
a(I0
g128
tp255
a(I1
g186
tp256
a(I2
g128
tp257
a(I3
g130
tp258
a(I0
g190
tp259
a(I1
g186
tp260
a(I2
g190
tp261
a(I3
g186
tp262
a(I0
g190
tp263
a(I1
g128
tp264
a(I2
g190
tp265
a(I3
g186
tp266
a(I0
g130
tp267
a(I1
g128
tp268
a(I2
g130
tp269
a(I3
g128
tp270
a(I0
g130
tp271
a(I1
g128
tp272
a(I2
g130
tp273
a(I3
g128
tp274
a(I0
g130
tp275
a(I1
g128
tp276
a(I2
g130
tp277
a(I3
g128
tp278
a(I0
g130
tp279
a(I1
g128
tp280
a(I2
g130
tp281
a(I3
g128
tp282
a(I0
g130
tp283
a(I1
g128
tp284
a(I2
g130
tp285
a(I3
g128
tp286
a(I0
g130
tp287
a(I1
g128
tp288
a(I2
g130
tp289
a(I3
g128
tp290
a(I0
g130
tp291
a(I1
g128
tp292
a(I2
g130
tp293
a(I3
g128
tp294
a(I0
g130
tp295
a(I1
g128
tp296
a(I2
g130
tp297
a(I3
g128
tp298
a(I0
g130
tp299
a(I1
g128
tp300
a(I2
g130
tp301
a(I3
g128
tp302
a(I0
g130
tp303
a(I1
g128
tp304
a(I2
g130
tp305
a(I3
g128
tp306
a(I0
g130
tp307
a(I1
g128
tp308
a(I2
g130
tp309
a(I3
g128
tp310
a(I0
g130
tp311
a(I1
g128
tp312
a(I2
g130
tp313
a(I3
g128
tp314
a(I0
g130
tp315
a(I1
g128
tp316
a(I2
g130
tp317
a(I3
g128
tp318
a(I0
g130
tp319
a(I1
g128
tp320
a(I2
g130
tp321
a(I3
g128
tp322
a(I0
g130
tp323
a(I1
g186
tp324
a(I2
g130
tp325
a(I3
g128
tp326
a(I0
g190
tp327
a(I1
g186
tp328
a(I2
g190
tp329
a(I3
g186
tp330
a(I0
g190
tp331
a(I1
g130
tp332
a(I2
g190
tp333
a(I3
g186
tp334
a(I0
g128
tp335
a(I1
g130
tp336
a(I2
g128
tp337
a(I3
g130
tp338
a(I0
g128
tp339
a(I1
g130
tp340
a(I2
g128
tp341
a(I3
g130
tp342
a(I0
g128
tp343
a(I1
g130
tp344
a(I2
g128
tp345
a(I3
g130
tp346
a(I0
g128
tp347
a(I1
g186
tp348
a(I2
g128
tp349
a(I3
g130
tp350
a(I0
g190
tp351
a(I1
g186
tp352
a(I2
g190
tp353
a(I3
g186
tp354
a(I0
g190
tp355
a(I1
g186
tp356
a(I2
g190
tp357
a(I3
g186
tp358
a(I0
g190
tp359
a(I1
g130
tp360
a(I2
g190
tp361
a(I3
g186
tp362
a(I0
g128
tp363
a(I1
g130
tp364
a(I2
g128
tp365
a(I3
g130
tp366
a(I0
g128
tp367
a(I1
g130
tp368
a(I2
g128
tp369
a(I3
g130
tp370
a(I0
g128
tp371
a(I1
g130
tp372
a(I2
g128
tp373
a(I3
g130
tp374
a(I0
g128
tp375
a(I1
g190
tp376
a(I2
g128
tp377
a(I3
g130
tp378
a(I0
g186
tp379
a(I1
g130
tp380
a(I2
g186
tp381
a(I3
g190
tp382
a(I0
g128
tp383
a(I1
g130
tp384
a(I2
g128
tp385
a(I3
g130
tp386
a(I0
g128
tp387
a(I1
g186
tp388
a(I2
g128
tp389
a(I3
g130
tp390
a(I0
g190
tp391
a(I1
g130
tp392
a(I2
g190
tp393
a(I3
g186
tp394
a(I0
g128
tp395
a(I1
g130
tp396
a(I2
g128
tp397
a(I3
g130
tp398
a(I0
g128
tp399
a(I1
g186
tp400
a(I2
g128
tp401
a(I3
g130
tp402
a(I0
g190
tp403
a(I1
g186
tp404
a(I2
g190
tp405
a(I3
g186
tp406
a(I0
g190
tp407
a(I1
g128
tp408
a(I2
g190
tp409
a(I3
g186
tp410
a(I0
g130
tp411
a(I1
g186
tp412
a(I2
g130
tp413
a(I3
g128
tp414
a(I0
g190
tp415
a(I1
g186
tp416
a(I2
g190
tp417
a(I3
g186
tp418
a(I0
g190
tp419
a(I1
g128
tp420
a(I2
g190
tp421
a(I3
g186
tp422
a(I0
g130
tp423
a(I1
g128
tp424
a(I2
g130
tp425
a(I3
g128
tp426
a(I0
g130
tp427
a(I1
g128
tp428
a(I2
g130
tp429
a(I3
g128
tp430
a(I0
g130
tp431
a(I1
g128
tp432
a(I2
g130
tp433
a(I3
g128
tp434
a(I0
g130
tp435
a(I1
g186
tp436
a(I2
g130
tp437
a(I3
g128
tp438
a(I0
g190
tp439
a(I1
g186
tp440
a(I2
g190
tp441
a(I3
g186
tp442
a(I0
g190
tp443
a(I1
g128
tp444
a(I2
g190
tp445
a(I3
g186
tp446
a(I0
g186
tp447
a(I1
g130
tp448
a(I2
g186
tp449
a(I3
S'Stop'
p450
tp451
a(I0
g450
tp452
a(I1
g128
tp453
a(I2
g190
tp454
a(I3
g450
tp455
a(I0
g450
tp456
a(I1
g130
tp457
a(I2
g186
tp458
a(I3
g450
tp459
a(I0
g450
tp460
a(I1
g130
tp461
a(I2
g190
tp462
a(I3
g450
tp463
a(I0
g450
tp464
a(I1
g130
tp465
a(I2
g186
tp466
a(I3
g450
tp467
a(I0
g450
tp468
a(I1
g450
tp469
a(I2
g190
tp470
a(I3
g450
tp471
a(I0
g450
tp472
a(I1
g450
tp473
a(I2
g186
tp474
a(I3
g450
tp475
a(I0
g450
tp476
a(I1
g450
tp477
a(I2
g190
tp478
a(I3
g450
tp479
a(I0
g450
tp480
a(I1
g130
tp481
a(I2
g186
tp482
a(I3
g450
tp483
a(I0
g450
tp484
a(I1
g450
tp485
a(I2
g190
tp486
a(I3
g450
tp487
a(I0
g450
tp488
a(I1
g130
tp489
a(I2
g186
tp490
a(I3
g130
tp491
a(I0
g450
tp492
a(I1
g450
tp493
a(I2
g190
tp494
a(I3
g128
tp495
a(I0
g450
tp496
a(I1
g450
tp497
a(I2
g130
tp498
a(I3
g190
tp499
a(I0
g450
tp500
a(I1
g128
tp501
a(I2
g128
tp502
a(I3
g186
tp503
a(I0
g450
tp504
a(I1
g130
tp505
a(I2
g186
tp506
a(I3
g450
tp507
a(I0
g450
tp508
a(I1
g450
tp509
a(I2
g190
tp510
a(I3
g450
tp511
a(I0
g450
tp512
a(I1
g128
tp513
a(I2
g186
tp514
a(I3
g450
tp515
a(I0
g450
tp516
a(I1
g128
tp517
a(I2
g190
tp518
a(I3
g450
tp519
a(I0
g450
tp520
a(I1
g450
tp521
a(I2
g186
tp522
a(I3
g450
tp523
a(I0
g450
tp524
a(I1
g128
tp525
a(I2
g190
tp526
a(I3
g450
tp527
a(I0
g450
tp528
a(I1
g128
tp529
a(I2
g130
tp530
a(I3
g450
tp531
a(I0
g450
tp532
a(I1
g190
tp533
a(I2
g450
tp534
a(I3
g450
tp535
a(I0
g450
tp536
a(I1
g186
tp537
a(I2
g450
tp538
a(I3
g450
tp539
a(I0
g450
tp540
a(I1
g130
tp541
a(I2
g130
tp542
a(I3
g450
tp543
a(I0
g450
tp544
a(I1
g450
tp545
a(I2
g450
tp546
a(I3
g130
tp547
a(I0
g450
tp548
a(I1
g450
tp549
a(I2
g450
tp550
a(I3
g128
tp551
a(I0
g450
tp552
a(I1
g128
tp553
a(I2
g128
tp554
a(I3
g130
tp555
a(I0
g450
tp556
a(I1
g128
tp557
a(I2
g130
tp558
a(I3
g128
tp559
a(I0
g450
tp560
a(I1
g450
tp561
a(I2
g128
tp562
a(I3
g450
tp563
a(I0
g450
tp564
a(I1
g450
tp565
a(I2
g450
tp566
a(I3
g190
tp567
a(I0
g450
tp568
a(I1
g450
tp569
a(I2
g128
tp570
a(I3
g186
tp571
a(I0
g450
tp572
a(I1
g128
tp573
a(I2
g130
tp574
a(I3
g450
tp575
a(I0
g450
tp576
a(I1
g450
tp577
a(I2
g450
tp578
a(I3
g450
tp579
a(I0
g450
tp580
a(I1
g128
tp581
a(I2
g450
tp582
a(I3
g450
tp583
a(I0
g450
tp584
a(I1
g128
tp585
a(I2
g450
tp586
a(I3
g450
tp587
a(I0
g450
tp588
a(I1
g450
tp589
a(I2
g450
tp590
a(I3
g450
tp591
a(I0
g450
tp592
a(I1
g130
tp593
a(I2
g450
tp594
a(I3
g450
tp595
a(I0
g450
tp596
a(I1
g128
tp597
a(I2
g450
tp598
a(I3
g450
tp599
a(I0
g450
tp600
a(I1
g450
tp601
a(I2
g450
tp602
a(I3
g450
tp603
a(I0
g450
tp604
a(I1
g128
tp605
a(I2
g130
tp606
a(I3
g450
tp607
a(I0
g450
tp608
a(I1
g130
tp609
a(I2
g128
tp610
a(I3
g450
tp611
a(I0
g450
tp612
a(I1
g450
tp613
a(I2
g450
tp614
a(I3
g190
tp615
a(I0
g450
tp616
a(I1
g450
tp617
a(I2
g128
tp618
a(I3
g186
tp619
a(I0
g450
tp620
a(I1
g130
tp621
a(I2
g130
tp622
a(I3
g450
tp623
a(I0
g450
tp624
a(I1
g128
tp625
a(I2
g450
tp626
a(I3
g450
tp627
a(I0
g450
tp628
a(I1
g450
tp629
a(I2
g450
tp630
a(I3
g450
tp631
a(I0
g450
tp632
a(I1
g130
tp633
a(I2
g450
tp634
a(I3
g450
tp635
a(I0
g450
tp636
a(I1
g128
tp637
a(I2
g450
tp638
a(I3
g450
tp639
a(I0
g450
tp640
a(I1
g128
tp641
a(I2
g130
tp642
a(I3
g450
tp643
a(I0
g450
tp644
a(I1
g450
tp645
a(I2
g128
tp646
a(I3
g450
tp647
a(I0
g450
tp648
a(I1
g450
tp649
a(I2
g130
tp650
a(I3
g450
tp651
a(I0
g450
tp652
a(I1
g450
tp653
a(I2
g128
tp654
a(I3
g450
tp655
a(I0
g450
tp656
a(I1
g450
tp657
a(I2
g130
tp658
a(I3
g450
tp659
a(I0
g450
tp660
a(I1
g130
tp661
a(I2
g128
tp662
a(I3
g190
tp663
a(I0
g450
tp664
a(I1
g450
tp665
a(I2
g128
tp666
a(I3
g186
tp667
a(I0
g450
tp668
a(I1
g130
tp669
a(I2
g130
tp670
a(I3
g450
tp671
a(I0
g450
tp672
a(I1
g128
tp673
a(I2
g450
tp674
a(I3
g450
tp675
a(I0
g450
tp676
a(I1
g128
tp677
a(I2
g130
tp678
a(I3
g450
tp679
a(I0
g450
tp680
a(I1
g130
tp681
a(I2
g128
tp682
a(I3
g450
tp683
a(I0
g450
tp684
a(I1
g128
tp685
a(I2
g130
tp686
a(I3
g450
tp687
a(I0
g450
tp688
a(I1
g130
tp689
a(I2
g128
tp690
a(I3
g450
tp691
a(I0
g450
tp692
a(I1
g450
tp693
a(I2
g450
tp694
a(I3
g450
tp695
a(I0
g450
tp696
a(I1
g450
tp697
a(I2
g450
tp698
a(I3
g450
tp699
a(I0
g450
tp700
a(I1
g450
tp701
a(I2
g450
tp702
a(I3
g450
tp703
a(I0
g450
tp704
a(I1
g130
tp705
a(I2
g450
tp706
a(I3
g450
tp707
a(I0
g450
tp708
a(I1
g450
tp709
a(I2
g450
tp710
a(I3
g128
tp711
a(I0
g450
tp712
a(I1
g130
tp713
a(I2
g128
tp714
a(I3
g130
tp715
a(I0
g450
tp716
a(I1
g130
tp717
a(I2
g130
tp718
a(I3
g128
tp719
a(I0
g450
tp720
a(I1
g128
tp721
a(I2
g128
tp722
a(I3
g128
tp723
a(I0
g190
tp724
a(I1
g450
tp725
a(I2
g128
tp726
a(I3
g130
tp727
a(I0
g130
tp728
a(I1
g450
tp729
a(I2
g130
tp730
a(I3
g450
tp731
a(I0
g130
tp732
asS'length'
p733
I600
sS'agents'
p734
(lp735
(igame
Agent
p736
(dp737
S'index'
p738
I0
sba(igame
Agent
p739
(dp740
g738
I0
sba(igame
Agent
p741
(dp742
g738
I0
sba(igame
Agent
p743
(dp744
g738
I0
sbasS'redTeamName'
p745
S'PacStreetsPac'
p746
s.