(dp1
S'startingTeam'
p2
I0
sS'layout'
p3
(ilayout
Layout
p4
(dp5
S'capsules'
p6
(lp7
(I32
I4
tp8
a(I10
I6
tp9
a(I23
I11
tp10
a(I1
I13
tp11
asS'numGhosts'
p12
I4
sS'food'
p13
(igame
Grid
p14
(dp15
S'CELLS_PER_INT'
p16
I30
sS'width'
p17
I34
sS'data'
p18
(lp19
(lp20
I00
aI00
aI00
aI00
aI00
aI00
aI00
aI00
aI00
aI00
aI00
aI00
aI00
aI00
aI00
aI00
aI00
aI00
aa(lp21
I00
aI00
aI00
aI00
aI00
aI00
aI00
aI00
aI00
aI00
aI01
aI00
aI00
aI00
aI00
aI00
aI01
aI00
aa(lp22
I00
aI00
aI00
aI00
aI00
aI00
aI00
aI00
aI00
aI00
aI00
aI00
aI00
aI00
aI00
aI00
aI01
aI00
aa(lp23
I00
aI00
aI00
aI00
aI00
aI00
aI00
aI00
aI00
aI00
aI00
aI00
aI00
aI00
aI00
aI00
aI00
aI00
aa(lp24
I00
aI00
aI00
aI00
aI00
aI01
aI01
aI01
aI00
aI01
aI01
aI00
aI00
aI01
aI00
aI00
aI00
aI00
aa(lp25
I00
aI00
aI00
aI00
aI00
aI00
aI00
aI00
aI00
aI00
aI00
aI00
aI00
aI00
aI00
aI00
aI00
aI00
aa(lp26
I00
aI00
aI00
aI00
aI00
aI00
aI00
aI00
aI00
aI01
aI00
aI00
aI00
aI00
aI00
aI00
aI01
aI00
aa(lp27
I00
aI01
aI00
aI00
aI00
aI00
aI00
aI00
aI00
aI00
aI00
aI00
aI00
aI00
aI00
aI00
aI00
aI00
aa(lp28
I00
aI00
aI00
aI00
aI01
aI00
aI00
aI00
aI00
aI00
aI01
aI00
aI00
aI01
aI00
aI00
aI01
aI00
aa(lp29
I00
aI01
aI00
aI00
aI00
aI00
aI00
aI00
aI00
aI01
aI00
aI00
aI00
aI00
aI00
aI00
aI00
aI00
aa(lp30
I00
aI00
aI00
aI00
aI00
aI00
aI00
aI00
aI00
aI00
aI00
aI00
aI00
aI01
aI00
aI00
aI01
aI00
aa(lp31
I00
aI00
aI00
aI00
aI00
aI00
aI00
aI00
aI00
aI00
aI00
aI00
aI00
aI00
aI00
aI00
aI00
aI00
aa(lp32
I00
aI01
aI01
aI00
aI01
aI01
aI00
aI00
aI00
aI00
aI01
aI00
aI00
aI00
aI00
aI00
aI00
aI00
aa(lp33
I00
aI00
aI00
aI00
aI00
aI00
aI00
aI00
aI00
aI00
aI00
aI00
aI00
aI00
aI00
aI00
aI00
aI00
aa(lp34
I00
aI01
aI01
aI00
aI01
aI01
aI00
aI00
aI00
aI00
aI00
aI00
aI00
aI00
aI00
aI00
aI01
aI00
aa(lp35
I00
aI00
aI00
aI00
aI00
aI00
aI00
aI00
aI00
aI00
aI00
aI00
aI00
aI00
aI00
aI00
aI00
aI00
aa(lp36
I00
aI00
aI00
aI00
aI00
aI00
aI00
aI00
aI00
aI00
aI00
aI00
aI00
aI00
aI00
aI00
aI00
aI00
aa(lp37
I00
aI00
aI00
aI00
aI00
aI00
aI00
aI00
aI00
aI00
aI00
aI00
aI00
aI00
aI00
aI00
aI00
aI00
aa(lp38
I00
aI00
aI00
aI00
aI00
aI00
aI00
aI00
aI00
aI00
aI00
aI00
aI00
aI00
aI00
aI00
aI00
aI00
aa(lp39
I00
aI01
aI00
aI00
aI00
aI00
aI00
aI00
aI00
aI00
aI00
aI00
aI01
aI01
aI00
aI01
aI01
aI00
aa(lp40
I00
aI00
aI00
aI00
aI00
aI00
aI00
aI00
aI00
aI00
aI00
aI00
aI00
aI00
aI00
aI00
aI00
aI00
aa(lp41
I00
aI00
aI00
aI00
aI00
aI00
aI00
aI01
aI00
aI00
aI00
aI00
aI01
aI01
aI00
aI01
aI01
aI00
aa(lp42
I00
aI00
aI00
aI00
aI00
aI00
aI00
aI00
aI00
aI00
aI00
aI00
aI00
aI00
aI00
aI00
aI00
aI00
aa(lp43
I00
aI01
aI00
aI00
aI01
aI00
aI00
aI00
aI00
aI00
aI00
aI00
aI00
aI00
aI00
aI00
aI00
aI00
aa(lp44
I00
aI00
aI00
aI00
aI00
aI00
aI00
aI00
aI01
aI00
aI00
aI00
aI00
aI00
aI00
aI00
aI01
aI00
aa(lp45
I00
aI01
aI00
aI00
aI01
aI00
aI00
aI01
aI00
aI00
aI00
aI00
aI00
aI01
aI00
aI00
aI00
aI00
aa(lp46
I00
aI00
aI00
aI00
aI00
aI00
aI00
aI00
aI00
aI00
aI00
aI00
aI00
aI00
aI00
aI00
aI01
aI00
aa(lp47
I00
aI01
aI00
aI00
aI00
aI00
aI00
aI00
aI01
aI00
aI00
aI00
aI00
aI00
aI00
aI00
aI00
aI00
aa(lp48
I00
aI00
aI00
aI00
aI00
aI00
aI00
aI00
aI00
aI00
aI00
aI00
aI00
aI00
aI00
aI00
aI00
aI00
aa(lp49
I00
aI00
aI00
aI00
aI01
aI00
aI00
aI01
aI01
aI00
aI01
aI01
aI01
aI00
aI00
aI00
aI00
aI00
aa(lp50
I00
aI00
aI00
aI00
aI00
aI00
aI00
aI00
aI00
aI00
aI00
aI00
aI00
aI00
aI00
aI00
aI00
aI00
aa(lp51
I00
aI01
aI00
aI00
aI00
aI00
aI00
aI00
aI00
aI00
aI00
aI00
aI00
aI00
aI00
aI00
aI00
aI00
aa(lp52
I00
aI01
aI00
aI00
aI00
aI00
aI00
aI01
aI00
aI00
aI00
aI00
aI00
aI00
aI00
aI00
aI00
aI00
aa(lp53
I00
aI00
aI00
aI00
aI00
aI00
aI00
aI00
aI00
aI00
aI00
aI00
aI00
aI00
aI00
aI00
aI00
aI00
aasS'height'
p54
I18
sbsS'agentPositions'
p55
(lp56
(I00
(I1
I2
tp57
tp58
a(I00
(I32
I15
tp59
tp60
a(I00
(I1
I1
tp61
tp62
a(I00
(I32
I16
tp63
tp64
asg54
I18
sg17
I34
sS'walls'
p65
(igame
Grid
p66
(dp67
g16
I30
sg17
I34
sg18
(lp68
(lp69
I01
aI01
aI01
aI01
aI01
aI01
aI01
aI01
aI01
aI01
aI01
aI01
aI01
aI01
aI01
aI01
aI01
aI01
aa(lp70
I01
aI00
aI00
aI00
aI00
aI00
aI00
aI01
aI00
aI00
aI00
aI00
aI00
aI00
aI00
aI01
aI00
aI01
aa(lp71
I01
aI00
aI01
aI00
aI00
aI01
aI00
aI00
aI00
aI00
aI00
aI00
aI00
aI00
aI00
aI01
aI00
aI01
aa(lp72
I01
aI00
aI01
aI01
aI01
aI01
aI01
aI01
aI01
aI01
aI00
aI01
aI01
aI01
aI01
aI01
aI00
aI01
aa(lp73
I01
aI00
aI01
aI00
aI00
aI00
aI00
aI00
aI01
aI00
aI00
aI00
aI00
aI00
aI00
aI01
aI00
aI01
aa(lp74
I01
aI00
aI01
aI01
aI00
aI01
aI01
aI01
aI01
aI01
aI00
aI01
aI01
aI01
aI00
aI00
aI00
aI01
aa(lp75
I01
aI00
aI00
aI00
aI00
aI00
aI00
aI00
aI00
aI00
aI00
aI00
aI00
aI00
aI00
aI01
aI00
aI01
aa(lp76
I01
aI00
aI01
aI01
aI01
aI01
aI00
aI01
aI01
aI01
aI01
aI01
aI01
aI01
aI01
aI01
aI01
aI01
aa(lp77
I01
aI00
aI01
aI00
aI00
aI00
aI00
aI00
aI00
aI01
aI00
aI00
aI00
aI00
aI00
aI00
aI00
aI01
aa(lp78
I01
aI00
aI01
aI00
aI01
aI01
aI01
aI01
aI00
aI00
aI00
aI01
aI01
aI01
aI01
aI00
aI01
aI01
aa(lp79
I01
aI00
aI00
aI00
aI00
aI00
aI00
aI00
aI00
aI00
aI00
aI00
aI00
aI00
aI00
aI00
aI00
aI01
aa(lp80
I01
aI01
aI00
aI01
aI01
aI01
aI01
aI01
aI01
aI00
aI01
aI01
aI01
aI01
aI01
aI00
aI01
aI01
aa(lp81
I01
aI00
aI00
aI01
aI00
aI00
aI00
aI00
aI00
aI00
aI00
aI00
aI00
aI00
aI00
aI00
aI00
aI01
aa(lp82
I01
aI01
aI00
aI01
aI01
aI01
aI01
aI01
aI01
aI01
aI01
aI01
aI01
aI00
aI01
aI01
aI00
aI01
aa(lp83
I01
aI00
aI00
aI00
aI00
aI00
aI00
aI00
aI00
aI00
aI00
aI00
aI00
aI00
aI00
aI01
aI00
aI01
aa(lp84
I01
aI01
aI01
aI01
aI01
aI01
aI00
aI01
aI01
aI01
aI01
aI01
aI01
aI01
aI00
aI00
aI00
aI01
aa(lp85
I01
aI00
aI00
aI00
aI00
aI00
aI00
aI00
aI00
aI00
aI00
aI00
aI00
aI00
aI00
aI00
aI00
aI01
aa(lp86
I01
aI00
aI00
aI00
aI00
aI00
aI00
aI00
aI00
aI00
aI00
aI00
aI00
aI00
aI00
aI00
aI00
aI01
aa(lp87
I01
aI00
aI00
aI00
aI01
aI01
aI01
aI01
aI01
aI01
aI01
aI00
aI01
aI01
aI01
aI01
aI01
aI01
aa(lp88
I01
aI00
aI01
aI00
aI00
aI00
aI00
aI00
aI00
aI00
aI00
aI00
aI00
aI00
aI00
aI00
aI00
aI01
aa(lp89
I01
aI00
aI01
aI01
aI00
aI01
aI01
aI01
aI01
aI01
aI01
aI01
aI01
aI01
aI01
aI00
aI01
aI01
aa(lp90
I01
aI00
aI00
aI00
aI00
aI00
aI00
aI00
aI00
aI00
aI00
aI00
aI00
aI00
aI01
aI00
aI00
aI01
aa(lp91
I01
aI01
aI00
aI01
aI01
aI01
aI01
aI01
aI00
aI01
aI01
aI01
aI01
aI01
aI01
aI00
aI01
aI01
aa(lp92
I01
aI00
aI00
aI00
aI00
aI00
aI00
aI00
aI00
aI00
aI00
aI00
aI00
aI00
aI00
aI00
aI00
aI01
aa(lp93
I01
aI01
aI00
aI01
aI01
aI01
aI01
aI00
aI00
aI00
aI01
aI01
aI01
aI01
aI00
aI01
aI00
aI01
aa(lp94
I01
aI00
aI00
aI00
aI00
aI00
aI00
aI00
aI01
aI00
aI00
aI00
aI00
aI00
aI00
aI01
aI00
aI01
aa(lp95
I01
aI01
aI01
aI01
aI01
aI01
aI01
aI01
aI01
aI01
aI01
aI00
aI01
aI01
aI01
aI01
aI00
aI01
aa(lp96
I01
aI00
aI01
aI00
aI00
aI00
aI00
aI00
aI00
aI00
aI00
aI00
aI00
aI00
aI00
aI00
aI00
aI01
aa(lp97
I01
aI00
aI00
aI00
aI01
aI01
aI01
aI00
aI01
aI01
aI01
aI01
aI01
aI00
aI01
aI01
aI00
aI01
aa(lp98
I01
aI00
aI01
aI00
aI00
aI00
aI00
aI00
aI00
aI01
aI00
aI00
aI00
aI00
aI00
aI01
aI00
aI01
aa(lp99
I01
aI00
aI01
aI01
aI01
aI01
aI01
aI00
aI01
aI01
aI01
aI01
aI01
aI01
aI01
aI01
aI00
aI01
aa(lp100
I01
aI00
aI01
aI00
aI00
aI00
aI00
aI00
aI00
aI00
aI00
aI00
aI01
aI00
aI00
aI01
aI00
aI01
aa(lp101
I01
aI00
aI01
aI00
aI00
aI00
aI00
aI00
aI00
aI00
aI01
aI00
aI00
aI00
aI00
aI00
aI00
aI01
aa(lp102
I01
aI01
aI01
aI01
aI01
aI01
aI01
aI01
aI01
aI01
aI01
aI01
aI01
aI01
aI01
aI01
aI01
aI01
aasg54
I18
sbsS'totalFood'
p103
I60
sS'layoutText'
p104
(lp105
S'%%%%%%%%%%%%%%%%%%%%%%%%%%%%%%%%%%'
p106
aS'%..   .%.%.%  .   %.%.% . .     4%'
p107
aS'%%%%% %%     %%   %. .  %%% %%%%2%'
p108
aS'%  %   % % % %    % %%%   % % %  %'
p109
aS'%o %.% %.%.%   %  %.%.% %.%   %  %'
p110
aS'%  % % % % % % %  %.%.% % % %.%% %'
p111
aS'%  % % % % % % %    % %o%   %.%  %'
p112
aS'%.  .  %.  %.% %  % % % % % %.% %%'
p113
aS'%  %.%.%%.   % %  % % %   % %%%  %'
p114
aS'%  %%% %   % % %  % %   .%%.%.%  %'
p115
aS'%% %.% % % % % %  % %.%  .%  .  .%'
p116
aS'%  %.%   %o% %    % % % % % % %  %'
p117
aS'% %%.% % % %.%.%  % % % % % % %  %'
p118
aS'%  %   %.% %.%.%  %   %.%.% %.% o%'
p119
aS'%  % % %   %%% %    % % % %   %  %'
p120
aS'%1%%%% %%%  . .%   %%     %% %%%%%'
p121
aS'%3     . . %.%.%   .  %.%.%.   ..%'
p122
aS'%%%%%%%%%%%%%%%%%%%%%%%%%%%%%%%%%%'
p123
asbsS'blueTeamName'
p124
S'WakaWakaWaka'
p125
sS'actions'
p126
(lp127
(I0
S'South'
p128
tp129
a(I1
S'North'
p130
tp131
a(I2
S'East'
p132
tp133
a(I3
S'West'
p134
tp135
a(I0
g132
tp136
a(I1
g134
tp137
a(I2
g132
tp138
a(I3
g134
tp139
a(I0
g132
tp140
a(I1
g134
tp141
a(I2
g132
tp142
a(I3
g134
tp143
a(I0
g132
tp144
a(I1
g134
tp145
a(I2
g132
tp146
a(I3
g134
tp147
a(I0
g132
tp148
a(I1
g134
tp149
a(I2
g132
tp150
a(I3
g134
tp151
a(I0
g132
tp152
a(I1
g134
tp153
a(I2
g130
tp154
a(I3
g134
tp155
a(I0
g132
tp156
a(I1
g134
tp157
a(I2
g130
tp158
a(I3
g134
tp159
a(I0
g132
tp160
a(I1
g134
tp161
a(I2
g130
tp162
a(I3
g134
tp163
a(I0
g132
tp164
a(I1
g134
tp165
a(I2
g130
tp166
a(I3
g134
tp167
a(I0
g132
tp168
a(I1
g134
tp169
a(I2
g130
tp170
a(I3
g128
tp171
a(I0
g130
tp172
a(I1
g128
tp173
a(I2
g132
tp174
a(I3
g134
tp175
a(I0
g132
tp176
a(I1
g134
tp177
a(I2
g132
tp178
a(I3
g134
tp179
a(I0
g132
tp180
a(I1
g134
tp181
a(I2
g130
tp182
a(I3
g134
tp183
a(I0
g132
tp184
a(I1
g134
tp185
a(I2
g130
tp186
a(I3
g134
tp187
a(I0
g132
tp188
a(I1
g134
tp189
a(I2
g132
tp190
a(I3
g128
tp191
a(I0
g130
tp192
a(I1
g128
tp193
a(I2
g130
tp194
a(I3
g128
tp195
a(I0
g130
tp196
a(I1
g128
tp197
a(I2
g132
tp198
a(I3
g128
tp199
a(I0
g130
tp200
a(I1
g128
tp201
a(I2
g132
tp202
a(I3
g128
tp203
a(I0
g130
tp204
a(I1
g128
tp205
a(I2
g132
tp206
a(I3
g134
tp207
a(I0
g132
tp208
a(I1
g134
tp209
a(I2
g130
tp210
a(I3
g134
tp211
a(I0
g132
tp212
a(I1
g134
tp213
a(I2
g130
tp214
a(I3
g130
tp215
a(I0
g128
tp216
a(I1
g130
tp217
a(I2
g130
tp218
a(I3
g130
tp219
a(I0
g132
tp220
a(I1
S'Stop'
p221
tp222
a(I2
g130
tp223
a(I3
g130
tp224
a(I0
g128
tp225
a(I1
g221
tp226
a(I2
g132
tp227
a(I3
g130
tp228
a(I0
g128
tp229
a(I1
g221
tp230
a(I2
g132
tp231
a(I3
g130
tp232
a(I0
g132
tp233
a(I1
g221
tp234
a(I2
g130
tp235
a(I3
g221
tp236
a(I0
g128
tp237
a(I1
g221
tp238
a(I2
g132
tp239
a(I3
g221
tp240
a(I0
g128
tp241
a(I1
g221
tp242
a(I2
g132
tp243
a(I3
g221
tp244
a(I0
g132
tp245
a(I1
g221
tp246
a(I2
g221
tp247
a(I3
g221
tp248
a(I0
g134
tp249
a(I1
g221
tp250
a(I2
g221
tp251
a(I3
g221
tp252
a(I0
g130
tp253
a(I1
g221
tp254
a(I2
g221
tp255
a(I3
g221
tp256
a(I0
g130
tp257
a(I1
g221
tp258
a(I2
g221
tp259
a(I3
g221
tp260
a(I0
g134
tp261
a(I1
g221
tp262
a(I2
g221
tp263
a(I3
g221
tp264
a(I0
g134
tp265
a(I1
g221
tp266
a(I2
g221
tp267
a(I3
g221
tp268
a(I0
g132
tp269
a(I1
g221
tp270
a(I2
g221
tp271
a(I3
g221
tp272
a(I0
g132
tp273
a(I1
g221
tp274
a(I2
g221
tp275
a(I3
g221
tp276
a(I0
g132
tp277
a(I1
g221
tp278
a(I2
g221
tp279
a(I3
g221
tp280
a(I0
g130
tp281
a(I1
g221
tp282
a(I2
g221
tp283
a(I3
g221
tp284
a(I0
g132
tp285
a(I1
g221
tp286
a(I2
g221
tp287
a(I3
g221
tp288
a(I0
g132
tp289
a(I1
g221
tp290
a(I2
g221
tp291
a(I3
g221
tp292
a(I0
g130
tp293
a(I1
g221
tp294
a(I2
g221
tp295
a(I3
g221
tp296
a(I0
g130
tp297
a(I1
g221
tp298
a(I2
g221
tp299
a(I3
g221
tp300
a(I0
g130
tp301
a(I1
g221
tp302
a(I2
g221
tp303
a(I3
g221
tp304
a(I0
g128
tp305
a(I1
g221
tp306
a(I2
g221
tp307
a(I3
g221
tp308
a(I0
g128
tp309
a(I1
g221
tp310
a(I2
g221
tp311
a(I3
g221
tp312
a(I0
g128
tp313
a(I1
g221
tp314
a(I2
g221
tp315
a(I3
g221
tp316
a(I0
g134
tp317
a(I1
g221
tp318
a(I2
g221
tp319
a(I3
g221
tp320
a(I0
g134
tp321
a(I1
g221
tp322
a(I2
g221
tp323
a(I3
g221
tp324
a(I0
g128
tp325
a(I1
g221
tp326
a(I2
g221
tp327
a(I3
g221
tp328
a(I0
g134
tp329
a(I1
g221
tp330
a(I2
g221
tp331
a(I3
g221
tp332
a(I0
g134
tp333
a(I1
g221
tp334
a(I2
g221
tp335
a(I3
g221
tp336
a(I0
g130
tp337
a(I1
g221
tp338
a(I2
g221
tp339
a(I3
g221
tp340
a(I0
g134
tp341
a(I1
g221
tp342
a(I2
g221
tp343
a(I3
g221
tp344
a(I0
g132
tp345
a(I1
g221
tp346
a(I2
g221
tp347
a(I3
g221
tp348
a(I0
g128
tp349
a(I1
g221
tp350
a(I2
g221
tp351
a(I3
g221
tp352
a(I0
g132
tp353
a(I1
g221
tp354
a(I2
g221
tp355
a(I3
g221
tp356
a(I0
g128
tp357
a(I1
g221
tp358
a(I2
g221
tp359
a(I3
g221
tp360
a(I0
g128
tp361
a(I1
g221
tp362
a(I2
g221
tp363
a(I3
g221
tp364
a(I0
g132
tp365
a(I1
g221
tp366
a(I2
g221
tp367
a(I3
g221
tp368
a(I0
g132
tp369
a(I1
g221
tp370
a(I2
g221
tp371
a(I3
g221
tp372
a(I0
g132
tp373
a(I1
g221
tp374
a(I2
g221
tp375
a(I3
g221
tp376
a(I0
g130
tp377
a(I1
g221
tp378
a(I2
g221
tp379
a(I3
g221
tp380
a(I0
g132
tp381
a(I1
g221
tp382
a(I2
g221
tp383
a(I3
g221
tp384
a(I0
g132
tp385
a(I1
g221
tp386
a(I2
g221
tp387
a(I3
g221
tp388
a(I0
g128
tp389
a(I1
g221
tp390
a(I2
g221
tp391
a(I3
g221
tp392
a(I0
g130
tp393
a(I1
g221
tp394
a(I2
g221
tp395
a(I3
g221
tp396
a(I0
g134
tp397
a(I1
g221
tp398
a(I2
g221
tp399
a(I3
g221
tp400
a(I0
g134
tp401
a(I1
g221
tp402
a(I2
g221
tp403
a(I3
g221
tp404
a(I0
g128
tp405
a(I1
g221
tp406
a(I2
g221
tp407
a(I3
g221
tp408
a(I0
g134
tp409
a(I1
g221
tp410
a(I2
g221
tp411
a(I3
g221
tp412
a(I0
g134
tp413
a(I1
g221
tp414
a(I2
g221
tp415
a(I3
g221
tp416
a(I0
g134
tp417
a(I1
g221
tp418
a(I2
g221
tp419
a(I3
g221
tp420
a(I0
g134
tp421
a(I1
g221
tp422
a(I2
g221
tp423
a(I3
g221
tp424
a(I0
g130
tp425
a(I1
g221
tp426
a(I2
g221
tp427
a(I3
g221
tp428
a(I0
g134
tp429
a(I1
g221
tp430
a(I2
g221
tp431
a(I3
g221
tp432
a(I0
g128
tp433
a(I1
g128
tp434
a(I2
g221
tp435
a(I3
g221
tp436
a(I0
g132
tp437
a(I1
g221
tp438
a(I2
g221
tp439
a(I3
g221
tp440
a(I0
g132
tp441
a(I1
g221
tp442
a(I2
g221
tp443
a(I3
g221
tp444
a(I0
g132
tp445
a(I1
g221
tp446
a(I2
g221
tp447
a(I3
g221
tp448
a(I0
g132
tp449
a(I1
g221
tp450
a(I2
g221
tp451
a(I3
g221
tp452
a(I0
g132
tp453
a(I1
g221
tp454
a(I2
g221
tp455
a(I3
g221
tp456
a(I0
g130
tp457
a(I1
g221
tp458
a(I2
g221
tp459
a(I3
g221
tp460
a(I0
g132
tp461
a(I1
g221
tp462
a(I2
g221
tp463
a(I3
g221
tp464
a(I0
g132
tp465
a(I1
g221
tp466
a(I2
g221
tp467
a(I3
g221
tp468
a(I0
g130
tp469
a(I1
g221
tp470
a(I2
g221
tp471
a(I3
g221
tp472
a(I0
g130
tp473
a(I1
g221
tp474
a(I2
g221
tp475
a(I3
g221
tp476
a(I0
g128
tp477
a(I1
g221
tp478
a(I2
g221
tp479
a(I3
g221
tp480
a(I0
g128
tp481
a(I1
g221
tp482
a(I2
g221
tp483
a(I3
g221
tp484
a(I0
g134
tp485
a(I1
g221
tp486
a(I2
g221
tp487
a(I3
g221
tp488
a(I0
g134
tp489
a(I1
g221
tp490
a(I2
g221
tp491
a(I3
g221
tp492
a(I0
g128
tp493
a(I1
g221
tp494
a(I2
g221
tp495
a(I3
g221
tp496
a(I0
g134
tp497
a(I1
g221
tp498
a(I2
g221
tp499
a(I3
g221
tp500
a(I0
g134
tp501
a(I1
g221
tp502
a(I2
g221
tp503
a(I3
g221
tp504
a(I0
g134
tp505
a(I1
g221
tp506
a(I2
g221
tp507
a(I3
g221
tp508
a(I0
g130
tp509
a(I1
g221
tp510
a(I2
g221
tp511
a(I3
g221
tp512
a(I0
g130
tp513
a(I1
g221
tp514
a(I2
g221
tp515
a(I3
g221
tp516
a(I0
g134
tp517
a(I1
g221
tp518
a(I2
g221
tp519
a(I3
g221
tp520
a(I0
g134
tp521
a(I1
g221
tp522
a(I2
g221
tp523
a(I3
g221
tp524
a(I0
g132
tp525
a(I1
g221
tp526
a(I2
g221
tp527
a(I3
g221
tp528
a(I0
g132
tp529
a(I1
g221
tp530
a(I2
g221
tp531
a(I3
g221
tp532
a(I0
g132
tp533
a(I1
g221
tp534
a(I2
g221
tp535
a(I3
g221
tp536
a(I0
g130
tp537
a(I1
g221
tp538
a(I2
g221
tp539
a(I3
g221
tp540
a(I0
g132
tp541
a(I1
g221
tp542
a(I2
g221
tp543
a(I3
g221
tp544
a(I0
g132
tp545
a(I1
g221
tp546
a(I2
g221
tp547
a(I3
g221
tp548
a(I0
g130
tp549
a(I1
g221
tp550
a(I2
g221
tp551
a(I3
g221
tp552
a(I0
g130
tp553
a(I1
g221
tp554
a(I2
g221
tp555
a(I3
g221
tp556
a(I0
g130
tp557
a(I1
g221
tp558
a(I2
g221
tp559
a(I3
g221
tp560
a(I0
g130
tp561
a(I1
g221
tp562
a(I2
g221
tp563
a(I3
g221
tp564
a(I0
g132
tp565
a(I1
g221
tp566
a(I2
g221
tp567
a(I3
g221
tp568
a(I0
g132
tp569
a(I1
g221
tp570
a(I2
g221
tp571
a(I3
g221
tp572
a(I0
g132
tp573
a(I1
g221
tp574
a(I2
g221
tp575
a(I3
g221
tp576
a(I0
g134
tp577
a(I1
g221
tp578
a(I2
g221
tp579
a(I3
g221
tp580
a(I0
g134
tp581
a(I1
g221
tp582
a(I2
g221
tp583
a(I3
g221
tp584
a(I0
g134
tp585
a(I1
g221
tp586
a(I2
g221
tp587
a(I3
g221
tp588
a(I0
g128
tp589
a(I1
g221
tp590
a(I2
g221
tp591
a(I3
g221
tp592
a(I0
g128
tp593
a(I1
g221
tp594
a(I2
g221
tp595
a(I3
g221
tp596
a(I0
g128
tp597
a(I1
g221
tp598
a(I2
g221
tp599
a(I3
g221
tp600
a(I0
g128
tp601
a(I1
g221
tp602
a(I2
g221
tp603
a(I3
g221
tp604
a(I0
g134
tp605
a(I1
g221
tp606
a(I2
g221
tp607
a(I3
g221
tp608
a(I0
g134
tp609
a(I1
g221
tp610
a(I2
g221
tp611
a(I3
g221
tp612
a(I0
g128
tp613
a(I1
g221
tp614
a(I2
g221
tp615
a(I3
g221
tp616
a(I0
g134
tp617
a(I1
g221
tp618
a(I2
g221
tp619
a(I3
g221
tp620
a(I0
g134
tp621
a(I1
g221
tp622
a(I2
g221
tp623
a(I3
g221
tp624
a(I0
g130
tp625
a(I1
g221
tp626
a(I2
g221
tp627
a(I3
g221
tp628
a(I0
g134
tp629
a(I1
g221
tp630
a(I2
g221
tp631
a(I3
g221
tp632
a(I0
g128
tp633
a(I1
g128
tp634
a(I2
g221
tp635
a(I3
g221
tp636
a(I0
g132
tp637
a(I1
g221
tp638
a(I2
g221
tp639
a(I3
g221
tp640
a(I0
g132
tp641
a(I1
g221
tp642
a(I2
g221
tp643
a(I3
g221
tp644
a(I0
g128
tp645
a(I1
g221
tp646
a(I2
g221
tp647
a(I3
g221
tp648
a(I0
g128
tp649
a(I1
g221
tp650
a(I2
g221
tp651
a(I3
g221
tp652
a(I0
g132
tp653
a(I1
g221
tp654
a(I2
g221
tp655
a(I3
g221
tp656
a(I0
g132
tp657
a(I1
g221
tp658
a(I2
g221
tp659
a(I3
g221
tp660
a(I0
g132
tp661
a(I1
g221
tp662
a(I2
g221
tp663
a(I3
g221
tp664
a(I0
g130
tp665
a(I1
g221
tp666
a(I2
g221
tp667
a(I3
g221
tp668
a(I0
g132
tp669
a(I1
g221
tp670
a(I2
g221
tp671
a(I3
g221
tp672
a(I0
g132
tp673
a(I1
g221
tp674
a(I2
g221
tp675
a(I3
g221
tp676
a(I0
g132
tp677
a(I1
g221
tp678
a(I2
g221
tp679
a(I3
g221
tp680
a(I0
g132
tp681
a(I1
g221
tp682
a(I2
g221
tp683
a(I3
g221
tp684
a(I0
g128
tp685
a(I1
g221
tp686
a(I2
g221
tp687
a(I3
g221
tp688
a(I0
g130
tp689
a(I1
g221
tp690
a(I2
g221
tp691
a(I3
g221
tp692
a(I0
g134
tp693
a(I1
g221
tp694
a(I2
g221
tp695
a(I3
g221
tp696
a(I0
g134
tp697
a(I1
g221
tp698
a(I2
g221
tp699
a(I3
g221
tp700
a(I0
g134
tp701
a(I1
g221
tp702
a(I2
g221
tp703
a(I3
g221
tp704
a(I0
g134
tp705
a(I1
g221
tp706
a(I2
g221
tp707
a(I3
g221
tp708
a(I0
g128
tp709
a(I1
g221
tp710
a(I2
g221
tp711
a(I3
g221
tp712
a(I0
g134
tp713
a(I1
g221
tp714
a(I2
g221
tp715
a(I3
g221
tp716
a(I0
g134
tp717
a(I1
g221
tp718
a(I2
g221
tp719
a(I3
g221
tp720
a(I0
g134
tp721
a(I1
g221
tp722
a(I2
g221
tp723
a(I3
g221
tp724
a(I0
g134
tp725
a(I1
g221
tp726
a(I2
g221
tp727
a(I3
g221
tp728
a(I0
g130
tp729
a(I1
g221
tp730
a(I2
g221
tp731
a(I3
g221
tp732
asS'length'
p733
I600
sS'agents'
p734
(lp735
(igame
Agent
p736
(dp737
S'index'
p738
I0
sba(igame
Agent
p739
(dp740
g738
I0
sba(igame
Agent
p741
(dp742
g738
I0
sba(igame
Agent
p743
(dp744
g738
I0
sbasS'redTeamName'
p745
S'PacStreetsPac'
p746
s.