(dp1
S'startingTeam'
p2
I1
sS'layout'
p3
(ilayout
Layout
p4
(dp5
S'capsules'
p6
(lp7
(I27
I7
tp8
a(I8
I8
tp9
a(I25
I9
tp10
a(I6
I10
tp11
asS'numGhosts'
p12
I4
sS'food'
p13
(igame
Grid
p14
(dp15
S'CELLS_PER_INT'
p16
I30
sS'width'
p17
I34
sS'data'
p18
(lp19
(lp20
I00
aI00
aI00
aI00
aI00
aI00
aI00
aI00
aI00
aI00
aI00
aI00
aI00
aI00
aI00
aI00
aI00
aI00
aa(lp21
I00
aI00
aI00
aI00
aI00
aI00
aI00
aI00
aI00
aI00
aI00
aI00
aI00
aI00
aI00
aI00
aI00
aI00
aa(lp22
I00
aI00
aI00
aI00
aI00
aI00
aI00
aI00
aI00
aI00
aI00
aI00
aI00
aI00
aI00
aI00
aI00
aI00
aa(lp23
I00
aI00
aI00
aI00
aI00
aI00
aI00
aI00
aI00
aI01
aI01
aI00
aI01
aI00
aI00
aI00
aI00
aI00
aa(lp24
I00
aI00
aI00
aI00
aI00
aI00
aI00
aI00
aI00
aI00
aI00
aI00
aI00
aI00
aI00
aI01
aI00
aI00
aa(lp25
I00
aI00
aI00
aI00
aI00
aI00
aI00
aI00
aI00
aI00
aI00
aI00
aI00
aI00
aI00
aI00
aI00
aI00
aa(lp26
I00
aI00
aI00
aI01
aI00
aI01
aI00
aI00
aI00
aI01
aI00
aI01
aI01
aI00
aI00
aI00
aI00
aI00
aa(lp27
I00
aI00
aI00
aI00
aI00
aI01
aI00
aI00
aI00
aI00
aI00
aI00
aI00
aI00
aI00
aI00
aI00
aI00
aa(lp28
I00
aI01
aI01
aI01
aI00
aI01
aI00
aI00
aI00
aI00
aI00
aI00
aI00
aI00
aI00
aI00
aI00
aI00
aa(lp29
I00
aI00
aI00
aI00
aI00
aI00
aI00
aI00
aI00
aI00
aI00
aI00
aI01
aI01
aI00
aI00
aI00
aI00
aa(lp30
I00
aI00
aI00
aI00
aI01
aI00
aI01
aI00
aI00
aI00
aI01
aI00
aI00
aI00
aI00
aI01
aI00
aI00
aa(lp31
I00
aI00
aI00
aI00
aI00
aI01
aI00
aI00
aI01
aI00
aI01
aI00
aI01
aI00
aI00
aI00
aI01
aI00
aa(lp32
I00
aI00
aI00
aI00
aI00
aI00
aI00
aI00
aI00
aI00
aI00
aI00
aI00
aI00
aI00
aI00
aI00
aI00
aa(lp33
I00
aI01
aI00
aI00
aI01
aI00
aI00
aI00
aI01
aI00
aI00
aI00
aI00
aI00
aI00
aI00
aI01
aI00
aa(lp34
I00
aI00
aI00
aI00
aI00
aI00
aI00
aI00
aI00
aI00
aI00
aI00
aI00
aI00
aI00
aI00
aI00
aI00
aa(lp35
I00
aI01
aI00
aI00
aI00
aI00
aI00
aI00
aI00
aI00
aI00
aI00
aI00
aI00
aI00
aI00
aI00
aI00
aa(lp36
I00
aI00
aI00
aI00
aI00
aI00
aI00
aI00
aI00
aI00
aI00
aI00
aI00
aI00
aI00
aI00
aI00
aI00
aa(lp37
I00
aI00
aI00
aI00
aI00
aI00
aI00
aI00
aI00
aI00
aI00
aI00
aI00
aI00
aI00
aI00
aI00
aI00
aa(lp38
I00
aI00
aI00
aI00
aI00
aI00
aI00
aI00
aI00
aI00
aI00
aI00
aI00
aI00
aI00
aI00
aI01
aI00
aa(lp39
I00
aI00
aI00
aI00
aI00
aI00
aI00
aI00
aI00
aI00
aI00
aI00
aI00
aI00
aI00
aI00
aI00
aI00
aa(lp40
I00
aI01
aI00
aI00
aI00
aI00
aI00
aI00
aI00
aI01
aI00
aI00
aI00
aI01
aI00
aI00
aI01
aI00
aa(lp41
I00
aI00
aI00
aI00
aI00
aI00
aI00
aI00
aI00
aI00
aI00
aI00
aI00
aI00
aI00
aI00
aI00
aI00
aa(lp42
I00
aI01
aI00
aI00
aI00
aI01
aI00
aI01
aI00
aI01
aI00
aI00
aI01
aI00
aI00
aI00
aI00
aI00
aa(lp43
I00
aI00
aI01
aI00
aI00
aI00
aI00
aI01
aI00
aI00
aI00
aI01
aI00
aI01
aI00
aI00
aI00
aI00
aa(lp44
I00
aI00
aI00
aI00
aI01
aI01
aI00
aI00
aI00
aI00
aI00
aI00
aI00
aI00
aI00
aI00
aI00
aI00
aa(lp45
I00
aI00
aI00
aI00
aI00
aI00
aI00
aI00
aI00
aI00
aI00
aI00
aI01
aI00
aI01
aI01
aI01
aI00
aa(lp46
I00
aI00
aI00
aI00
aI00
aI00
aI00
aI00
aI00
aI00
aI00
aI00
aI01
aI00
aI00
aI00
aI00
aI00
aa(lp47
I00
aI00
aI00
aI00
aI00
aI01
aI01
aI00
aI01
aI00
aI00
aI00
aI01
aI00
aI01
aI00
aI00
aI00
aa(lp48
I00
aI00
aI00
aI00
aI00
aI00
aI00
aI00
aI00
aI00
aI00
aI00
aI00
aI00
aI00
aI00
aI00
aI00
aa(lp49
I00
aI00
aI01
aI00
aI00
aI00
aI00
aI00
aI00
aI00
aI00
aI00
aI00
aI00
aI00
aI00
aI00
aI00
aa(lp50
I00
aI00
aI00
aI00
aI00
aI01
aI00
aI01
aI01
aI00
aI00
aI00
aI00
aI00
aI00
aI00
aI00
aI00
aa(lp51
I00
aI00
aI00
aI00
aI00
aI00
aI00
aI00
aI00
aI00
aI00
aI00
aI00
aI00
aI00
aI00
aI00
aI00
aa(lp52
I00
aI00
aI00
aI00
aI00
aI00
aI00
aI00
aI00
aI00
aI00
aI00
aI00
aI00
aI00
aI00
aI00
aI00
aa(lp53
I00
aI00
aI00
aI00
aI00
aI00
aI00
aI00
aI00
aI00
aI00
aI00
aI00
aI00
aI00
aI00
aI00
aI00
aasS'height'
p54
I18
sbsS'agentPositions'
p55
(lp56
(I00
(I1
I2
tp57
tp58
a(I00
(I32
I15
tp59
tp60
a(I00
(I1
I1
tp61
tp62
a(I00
(I32
I16
tp63
tp64
asg54
I18
sg17
I34
sS'walls'
p65
(igame
Grid
p66
(dp67
g16
I30
sg17
I34
sg18
(lp68
(lp69
I01
aI01
aI01
aI01
aI01
aI01
aI01
aI01
aI01
aI01
aI01
aI01
aI01
aI01
aI01
aI01
aI01
aI01
aa(lp70
I01
aI00
aI00
aI00
aI00
aI00
aI00
aI00
aI00
aI00
aI00
aI00
aI00
aI00
aI00
aI00
aI00
aI01
aa(lp71
I01
aI01
aI01
aI01
aI01
aI01
aI01
aI01
aI01
aI01
aI01
aI01
aI01
aI01
aI01
aI01
aI00
aI01
aa(lp72
I01
aI00
aI01
aI00
aI00
aI00
aI01
aI00
aI00
aI00
aI00
aI01
aI00
aI00
aI00
aI00
aI00
aI01
aa(lp73
I01
aI00
aI00
aI00
aI01
aI00
aI01
aI00
aI01
aI01
aI01
aI01
aI01
aI00
aI01
aI00
aI00
aI01
aa(lp74
I01
aI00
aI01
aI01
aI01
aI00
aI00
aI00
aI01
aI00
aI00
aI01
aI00
aI00
aI01
aI01
aI00
aI01
aa(lp75
I01
aI00
aI00
aI00
aI00
aI00
aI01
aI00
aI01
aI00
aI00
aI00
aI00
aI00
aI01
aI00
aI00
aI01
aa(lp76
I01
aI01
aI00
aI01
aI01
aI00
aI01
aI00
aI00
aI00
aI00
aI01
aI00
aI00
aI01
aI00
aI00
aI01
aa(lp77
I01
aI00
aI00
aI00
aI01
aI00
aI01
aI00
aI00
aI00
aI00
aI01
aI01
aI00
aI01
aI01
aI00
aI01
aa(lp78
I01
aI01
aI01
aI01
aI01
aI01
aI01
aI01
aI00
aI01
aI01
aI01
aI00
aI00
aI01
aI00
aI00
aI01
aa(lp79
I01
aI00
aI00
aI01
aI00
aI01
aI00
aI01
aI00
aI00
aI00
aI01
aI01
aI01
aI01
aI00
aI01
aI01
aa(lp80
I01
aI00
aI00
aI00
aI00
aI00
aI00
aI00
aI00
aI01
aI00
aI01
aI00
aI00
aI00
aI00
aI00
aI01
aa(lp81
I01
aI01
aI00
aI01
aI00
aI01
aI01
aI01
aI01
aI01
aI01
aI01
aI01
aI00
aI01
aI01
aI01
aI01
aa(lp82
I01
aI00
aI00
aI00
aI00
aI00
aI00
aI00
aI00
aI00
aI00
aI00
aI00
aI00
aI00
aI00
aI00
aI01
aa(lp83
I01
aI01
aI01
aI00
aI01
aI01
aI01
aI01
aI01
aI01
aI01
aI01
aI00
aI00
aI00
aI00
aI00
aI01
aa(lp84
I01
aI00
aI01
aI00
aI00
aI00
aI00
aI00
aI00
aI00
aI00
aI01
aI01
aI01
aI01
aI00
aI01
aI01
aa(lp85
I01
aI00
aI00
aI00
aI01
aI00
aI01
aI00
aI01
aI00
aI00
aI01
aI00
aI00
aI00
aI00
aI00
aI01
aa(lp86
I01
aI00
aI00
aI00
aI00
aI00
aI01
aI00
aI00
aI01
aI00
aI01
aI00
aI01
aI00
aI00
aI00
aI01
aa(lp87
I01
aI01
aI00
aI01
aI01
aI01
aI01
aI00
aI00
aI00
aI00
aI00
aI00
aI00
aI00
aI01
aI00
aI01
aa(lp88
I01
aI00
aI00
aI00
aI00
aI00
aI01
aI01
aI01
aI01
aI01
aI01
aI01
aI01
aI00
aI01
aI01
aI01
aa(lp89
I01
aI00
aI00
aI00
aI00
aI00
aI00
aI00
aI00
aI00
aI00
aI00
aI00
aI00
aI00
aI00
aI00
aI01
aa(lp90
I01
aI01
aI01
aI01
aI00
aI01
aI01
aI01
aI01
aI01
aI01
aI01
aI01
aI00
aI01
aI00
aI01
aI01
aa(lp91
I01
aI00
aI00
aI00
aI00
aI00
aI01
aI00
aI01
aI00
aI00
aI00
aI00
aI00
aI00
aI00
aI00
aI01
aa(lp92
I01
aI01
aI00
aI01
aI01
aI01
aI01
aI00
aI00
aI00
aI01
aI00
aI01
aI00
aI01
aI00
aI00
aI01
aa(lp93
I01
aI00
aI00
aI01
aI00
aI00
aI01
aI01
aI01
aI00
aI01
aI01
aI01
aI01
aI01
aI01
aI01
aI01
aa(lp94
I01
aI00
aI01
aI01
aI00
aI01
aI01
aI00
aI00
aI00
aI00
aI01
aI00
aI01
aI00
aI00
aI00
aI01
aa(lp95
I01
aI00
aI00
aI01
aI00
aI00
aI01
aI00
aI00
aI00
aI00
aI01
aI00
aI01
aI01
aI00
aI01
aI01
aa(lp96
I01
aI00
aI00
aI01
aI00
aI00
aI00
aI00
aI00
aI01
aI00
aI01
aI00
aI00
aI00
aI00
aI00
aI01
aa(lp97
I01
aI00
aI01
aI01
aI00
aI00
aI01
aI00
aI00
aI01
aI00
aI00
aI00
aI01
aI01
aI01
aI00
aI01
aa(lp98
I01
aI00
aI00
aI01
aI00
aI01
aI01
aI01
aI01
aI01
aI00
aI01
aI00
aI01
aI00
aI00
aI00
aI01
aa(lp99
I01
aI00
aI00
aI00
aI00
aI00
aI01
aI00
aI00
aI00
aI00
aI01
aI00
aI00
aI00
aI01
aI00
aI01
aa(lp100
I01
aI00
aI01
aI01
aI01
aI01
aI01
aI01
aI01
aI01
aI01
aI01
aI01
aI01
aI01
aI01
aI01
aI01
aa(lp101
I01
aI00
aI00
aI00
aI00
aI00
aI00
aI00
aI00
aI00
aI00
aI00
aI00
aI00
aI00
aI00
aI00
aI01
aa(lp102
I01
aI01
aI01
aI01
aI01
aI01
aI01
aI01
aI01
aI01
aI01
aI01
aI01
aI01
aI01
aI01
aI01
aI01
aasg54
I18
sbsS'totalFood'
p103
I60
sS'layoutText'
p104
(lp105
S'%%%%%%%%%%%%%%%%%%%%%%%%%%%%%%%%%%'
p106
aS'%         %.%. %  .%.%  %.%    %4%'
p107
aS'% % .%  % . %     %%    %.  % %%2%'
p108
aS'% % %%%%%%% %  %     % %%.%.%  % %'
p109
aS'% %      .%    % % %.  .%%% %% % %'
p110
aS'% %.% . %.%.%  %   % %.%%...   % %'
p111
aS'% %%%%.%%%%%% %%%% % % .%%%% %%% %'
p112
aS'% %.% o  %..% %    % % %%      % %'
p113
aS'% %.% .  % %% %  % %.%.  o %%% % %'
p114
aS'% % %%% o  .%.% %  % %% %  . %.% %'
p115
aS'% %      %% % %    % %..%  o %.% %'
p116
aS'% %%% %%%%. % % %%%% %%%%%%.%%%% %'
p117
aS'% %   ...%%.% %   %  %.%.% . %.% %'
p118
aS'% % %% %%%.  .% % %    %.      % %'
p119
aS'% %  %.%.%% %     %  % %%%%%%% % %'
p120
aS'%1%% %  .%    %%     % . %  %. % %'
p121
aS'%3%    %.%  %.%.  % .%.%         %'
p122
aS'%%%%%%%%%%%%%%%%%%%%%%%%%%%%%%%%%%'
p123
asbsS'blueTeamName'
p124
S'Chompers'
p125
sS'actions'
p126
(lp127
(I1
S'South'
p128
tp129
a(I2
S'North'
p130
tp131
a(I3
g128
tp132
a(I0
g130
tp133
a(I1
g128
tp134
a(I2
g130
tp135
a(I3
g128
tp136
a(I0
g130
tp137
a(I1
g128
tp138
a(I2
g130
tp139
a(I3
g128
tp140
a(I0
g130
tp141
a(I1
g128
tp142
a(I2
g130
tp143
a(I3
g128
tp144
a(I0
g130
tp145
a(I1
g128
tp146
a(I2
g130
tp147
a(I3
g128
tp148
a(I0
g130
tp149
a(I1
g128
tp150
a(I2
g130
tp151
a(I3
g128
tp152
a(I0
g130
tp153
a(I1
g128
tp154
a(I2
g130
tp155
a(I3
g128
tp156
a(I0
g130
tp157
a(I1
g128
tp158
a(I2
g130
tp159
a(I3
g128
tp160
a(I0
g130
tp161
a(I1
g128
tp162
a(I2
g130
tp163
a(I3
g128
tp164
a(I0
g130
tp165
a(I1
g128
tp166
a(I2
g130
tp167
a(I3
g128
tp168
a(I0
g130
tp169
a(I1
g128
tp170
a(I2
g130
tp171
a(I3
g128
tp172
a(I0
g130
tp173
a(I1
g128
tp174
a(I2
g130
tp175
a(I3
g128
tp176
a(I0
g130
tp177
a(I1
g128
tp178
a(I2
g130
tp179
a(I3
g128
tp180
a(I0
g130
tp181
a(I1
g128
tp182
a(I2
g130
tp183
a(I3
g128
tp184
a(I0
g130
tp185
a(I1
S'West'
p186
tp187
a(I2
g130
tp188
a(I3
g128
tp189
a(I0
S'East'
p190
tp191
a(I1
g186
tp192
a(I2
g190
tp193
a(I3
g186
tp194
a(I0
g190
tp195
a(I1
g130
tp196
a(I2
g190
tp197
a(I3
g186
tp198
a(I0
g190
tp199
a(I1
g130
tp200
a(I2
g190
tp201
a(I3
g186
tp202
a(I0
g190
tp203
a(I1
g130
tp204
a(I2
g190
tp205
a(I3
g186
tp206
a(I0
g190
tp207
a(I1
g186
tp208
a(I2
g190
tp209
a(I3
g186
tp210
a(I0
g190
tp211
a(I1
g186
tp212
a(I2
g190
tp213
a(I3
g186
tp214
a(I0
g190
tp215
a(I1
g130
tp216
a(I2
g190
tp217
a(I3
g186
tp218
a(I0
g190
tp219
a(I1
g186
tp220
a(I2
g190
tp221
a(I3
g186
tp222
a(I0
g128
tp223
a(I1
g130
tp224
a(I2
g128
tp225
a(I3
g130
tp226
a(I0
g190
tp227
a(I1
g130
tp228
a(I2
g190
tp229
a(I3
g186
tp230
a(I0
g190
tp231
a(I1
g128
tp232
a(I2
g190
tp233
a(I3
g186
tp234
a(I0
g128
tp235
a(I1
g130
tp236
a(I2
g128
tp237
a(I3
g130
tp238
a(I0
g128
tp239
a(I1
g130
tp240
a(I2
g128
tp241
a(I3
g130
tp242
a(I0
g190
tp243
a(I1
g128
tp244
a(I2
g190
tp245
a(I3
g186
tp246
a(I0
g190
tp247
a(I1
S'Stop'
p248
tp249
a(I2
g190
tp250
a(I3
g186
tp251
a(I0
g130
tp252
a(I1
g190
tp253
a(I2
g128
tp254
a(I3
g186
tp255
a(I0
g130
tp256
a(I1
g186
tp257
a(I2
g128
tp258
a(I3
g128
tp259
a(I0
g190
tp260
a(I1
g190
tp261
a(I2
g128
tp262
a(I3
g128
tp263
a(I0
g190
tp264
a(I1
g186
tp265
a(I2
g128
tp266
a(I3
g186
tp267
a(I0
g190
tp268
a(I1
g186
tp269
a(I2
g128
tp270
a(I3
g186
tp271
a(I0
g130
tp272
a(I1
g190
tp273
a(I2
g128
tp274
a(I3
g128
tp275
a(I0
g190
tp276
a(I1
g130
tp277
a(I2
g128
tp278
a(I3
g186
tp279
a(I0
g190
tp280
a(I1
g186
tp281
a(I2
g128
tp282
a(I3
g186
tp283
a(I0
g186
tp284
a(I1
g186
tp285
a(I2
g128
tp286
a(I3
g190
tp287
a(I0
g186
tp288
a(I1
g130
tp289
a(I2
g128
tp290
a(I3
g130
tp291
a(I0
g128
tp292
a(I1
g248
tp293
a(I2
g190
tp294
a(I3
g130
tp295
a(I0
g190
tp296
a(I1
g186
tp297
a(I2
g190
tp298
a(I3
g128
tp299
a(I0
g128
tp300
a(I1
g186
tp301
a(I2
g190
tp302
a(I3
g128
tp303
a(I0
g190
tp304
a(I1
g186
tp305
a(I2
g190
tp306
a(I3
g130
tp307
a(I0
g190
tp308
a(I1
g130
tp309
a(I2
g130
tp310
a(I3
g130
tp311
a(I0
g190
tp312
a(I1
g130
tp313
a(I2
g130
tp314
a(I3
g186
tp315
a(I0
g128
tp316
a(I1
g130
tp317
a(I2
g128
tp318
a(I3
g186
tp319
a(I0
g130
tp320
a(I1
g130
tp321
a(I2
g128
tp322
a(I3
g186
tp323
a(I0
g186
tp324
a(I1
g186
tp325
a(I2
g186
tp326
a(I3
g130
tp327
a(I0
g186
tp328
a(I1
g186
tp329
a(I2
g186
tp330
a(I3
g186
tp331
a(I0
g186
tp332
a(I1
g130
tp333
a(I2
g186
tp334
a(I3
g186
tp335
a(I0
g130
tp336
a(I1
g186
tp337
a(I2
g186
tp338
a(I3
g130
tp339
a(I0
g186
tp340
a(I1
g190
tp341
a(I2
g130
tp342
a(I3
g128
tp343
a(I0
g186
tp344
a(I1
g128
tp345
a(I2
g186
tp346
a(I3
g190
tp347
a(I0
g248
tp348
a(I1
g190
tp349
a(I2
g190
tp350
a(I3
g128
tp351
a(I0
g248
tp352
a(I1
g190
tp353
a(I2
g130
tp354
a(I3
g128
tp355
a(I0
g248
tp356
a(I1
g128
tp357
a(I2
g130
tp358
a(I3
g128
tp359
a(I0
g248
tp360
a(I1
g128
tp361
a(I2
g130
tp362
a(I3
g128
tp363
a(I0
g248
tp364
a(I1
g128
tp365
a(I2
g130
tp366
a(I3
g128
tp367
a(I0
g248
tp368
a(I1
g128
tp369
a(I2
g128
tp370
a(I3
g128
tp371
a(I0
g190
tp372
a(I1
g190
tp373
a(I2
g128
tp374
a(I3
g128
tp375
a(I0
g190
tp376
a(I1
g186
tp377
a(I2
g128
tp378
a(I3
g128
tp379
a(I0
g128
tp380
a(I1
g130
tp381
a(I2
g128
tp382
a(I3
g128
tp383
a(I0
g190
tp384
a(I1
g130
tp385
a(I2
g128
tp386
a(I3
g128
tp387
a(I0
g190
tp388
a(I1
g130
tp389
a(I2
g190
tp390
a(I3
g128
tp391
a(I0
g190
tp392
a(I1
g130
tp393
a(I2
g190
tp394
a(I3
g128
tp395
a(I0
g130
tp396
a(I1
g186
tp397
a(I2
g130
tp398
a(I3
g128
tp399
a(I0
g248
tp400
a(I1
g186
tp401
a(I2
g130
tp402
a(I3
g128
tp403
a(I0
g130
tp404
a(I1
g130
tp405
a(I2
g130
tp406
a(I3
g128
tp407
a(I0
g128
tp408
a(I1
g130
tp409
a(I2
g130
tp410
a(I3
g186
tp411
a(I0
g130
tp412
a(I1
g128
tp413
a(I2
g190
tp414
a(I3
g186
tp415
a(I0
g130
tp416
a(I1
g128
tp417
a(I2
g248
tp418
a(I3
g186
tp419
a(I0
g130
tp420
a(I1
g190
tp421
a(I2
g248
tp422
a(I3
g186
tp423
a(I0
g130
tp424
a(I1
g190
tp425
a(I2
g248
tp426
a(I3
g186
tp427
a(I0
g130
tp428
a(I1
g128
tp429
a(I2
g186
tp430
a(I3
g186
tp431
a(I0
g130
tp432
a(I1
g128
tp433
a(I2
g128
tp434
a(I3
g186
tp435
a(I0
g130
tp436
a(I1
g128
tp437
a(I2
g128
tp438
a(I3
g186
tp439
a(I0
g130
tp440
a(I1
g128
tp441
a(I2
g190
tp442
a(I3
g130
tp443
a(I0
g130
tp444
a(I1
g190
tp445
a(I2
g248
tp446
a(I3
g186
tp447
a(I0
g130
tp448
a(I1
g190
tp449
a(I2
g248
tp450
a(I3
g186
tp451
a(I0
g130
tp452
a(I1
g190
tp453
a(I2
g248
tp454
a(I3
g130
tp455
a(I0
g130
tp456
a(I1
g186
tp457
a(I2
g186
tp458
a(I3
g130
tp459
a(I0
g130
tp460
a(I1
g190
tp461
a(I2
g130
tp462
a(I3
g186
tp463
a(I0
g130
tp464
a(I1
g128
tp465
a(I2
g248
tp466
a(I3
g186
tp467
a(I0
g190
tp468
a(I1
g130
tp469
a(I2
g248
tp470
a(I3
g186
tp471
a(I0
g190
tp472
a(I1
g186
tp473
a(I2
g248
tp474
a(I3
g128
tp475
a(I0
g190
tp476
a(I1
g190
tp477
a(I2
g248
tp478
a(I3
g128
tp479
a(I0
g190
tp480
a(I1
g248
tp481
a(I2
g128
tp482
a(I3
g186
tp483
a(I0
g190
tp484
a(I1
g190
tp485
a(I2
g190
tp486
a(I3
g186
tp487
a(I0
g190
tp488
a(I1
g186
tp489
a(I2
g248
tp490
a(I3
g130
tp491
a(I0
g190
tp492
a(I1
g186
tp493
a(I2
g186
tp494
a(I3
g186
tp495
a(I0
g190
tp496
a(I1
g190
tp497
a(I2
g128
tp498
a(I3
g186
tp499
a(I0
g128
tp500
a(I1
g128
tp501
a(I2
g128
tp502
a(I3
g128
tp503
a(I0
g190
tp504
a(I1
g130
tp505
a(I2
g130
tp506
a(I3
g128
tp507
a(I0
g190
tp508
a(I1
g130
tp509
a(I2
g130
tp510
a(I3
g128
tp511
a(I0
g128
tp512
a(I1
g128
tp513
a(I2
g128
tp514
a(I3
g128
tp515
a(I0
g128
tp516
a(I1
g248
tp517
a(I2
g130
tp518
a(I3
g128
tp519
a(I0
g190
tp520
a(I1
g130
tp521
a(I2
g130
tp522
a(I3
g128
tp523
a(I0
g190
tp524
a(I1
g128
tp525
a(I2
g130
tp526
a(I3
g128
tp527
a(I0
g130
tp528
a(I1
g248
tp529
a(I2
g130
tp530
a(I3
g128
tp531
a(I0
g130
tp532
a(I1
g186
tp533
a(I2
g248
tp534
a(I3
g128
tp535
a(I0
g190
tp536
a(I1
g190
tp537
a(I2
g248
tp538
a(I3
g128
tp539
a(I0
g190
tp540
a(I1
g130
tp541
a(I2
g248
tp542
a(I3
g128
tp543
a(I0
g190
tp544
a(I1
g128
tp545
a(I2
g128
tp546
a(I3
g128
tp547
a(I0
g190
tp548
a(I1
g186
tp549
a(I2
g128
tp550
a(I3
g128
tp551
a(I0
g128
tp552
a(I1
g186
tp553
a(I2
g248
tp554
a(I3
g128
tp555
a(I0
g190
tp556
a(I1
g186
tp557
a(I2
g128
tp558
a(I3
g128
tp559
a(I0
g190
tp560
a(I1
g130
tp561
a(I2
g190
tp562
a(I3
g186
tp563
a(I0
g186
tp564
a(I1
g130
tp565
a(I2
g186
tp566
a(I3
g186
tp567
a(I0
g186
tp568
a(I1
g130
tp569
a(I2
g130
tp570
a(I3
g186
tp571
a(I0
g186
tp572
a(I1
g128
tp573
a(I2
g248
tp574
a(I3
g186
tp575
a(I0
g130
tp576
a(I1
g128
tp577
a(I2
g128
tp578
a(I3
g186
tp579
a(I0
g186
tp580
a(I1
g128
tp581
a(I2
g190
tp582
a(I3
g186
tp583
a(I0
g186
tp584
a(I1
g190
tp585
a(I2
g248
tp586
a(I3
g186
tp587
a(I0
g128
tp588
a(I1
g190
tp589
a(I2
g248
tp590
a(I3
g186
tp591
a(I0
g248
tp592
a(I1
g190
tp593
a(I2
g248
tp594
a(I3
g130
tp595
a(I0
g248
tp596
a(I1
g130
tp597
a(I2
g186
tp598
a(I3
g186
tp599
a(I0
g248
tp600
a(I1
g128
tp601
a(I2
g190
tp602
a(I3
g186
tp603
a(I0
g248
tp604
a(I1
g130
tp605
a(I2
g186
tp606
a(I3
g130
tp607
a(I0
g248
tp608
a(I1
g128
tp609
a(I2
g130
tp610
a(I3
g130
tp611
a(I0
g248
tp612
a(I1
g186
tp613
a(I2
g248
tp614
a(I3
g186
tp615
a(I0
g248
tp616
a(I1
g190
tp617
a(I2
g248
tp618
a(I3
g186
tp619
a(I0
g248
tp620
a(I1
g248
tp621
a(I2
g248
tp622
a(I3
g186
tp623
a(I0
g248
tp624
a(I1
g248
tp625
a(I2
g248
tp626
a(I3
g128
tp627
a(I0
g248
tp628
a(I1
g248
tp629
a(I2
g248
tp630
a(I3
g128
tp631
a(I0
g248
tp632
a(I1
g130
tp633
a(I2
g248
tp634
a(I3
g186
tp635
a(I0
g248
tp636
a(I1
g128
tp637
a(I2
g128
tp638
a(I3
g186
tp639
a(I0
g248
tp640
a(I1
g248
tp641
a(I2
g190
tp642
a(I3
g186
tp643
a(I0
g248
tp644
a(I1
g128
tp645
a(I2
g190
tp646
a(I3
g130
tp647
a(I0
g248
tp648
a(I1
g130
tp649
a(I2
g248
tp650
a(I3
g186
tp651
a(I0
g248
tp652
a(I1
g186
tp653
a(I2
g128
tp654
a(I3
g186
tp655
a(I0
g248
tp656
a(I1
g186
tp657
a(I2
g128
tp658
a(I3
g186
tp659
a(I0
g248
tp660
a(I1
g186
tp661
a(I2
g186
tp662
a(I3
g128
tp663
a(I0
g248
tp664
a(I1
g190
tp665
a(I2
g186
tp666
a(I3
g128
tp667
a(I0
g248
tp668
a(I1
g190
tp669
a(I2
g186
tp670
a(I3
g130
tp671
a(I0
g248
tp672
a(I1
g190
tp673
a(I2
g186
tp674
a(I3
g186
tp675
a(I0
g248
tp676
a(I1
g130
tp677
a(I2
g128
tp678
a(I3
g186
tp679
a(I0
g130
tp680
a(I1
g128
tp681
a(I2
g186
tp682
a(I3
g130
tp683
a(I0
g190
tp684
a(I1
g130
tp685
a(I2
g186
tp686
a(I3
g128
tp687
a(I0
g190
tp688
a(I1
g128
tp689
a(I2
g190
tp690
a(I3
g128
tp691
a(I0
g128
tp692
a(I1
g128
tp693
a(I2
g190
tp694
a(I3
g128
tp695
a(I0
g190
tp696
a(I1
g130
tp697
a(I2
g130
tp698
a(I3
g128
tp699
a(I0
g190
tp700
a(I1
g186
tp701
a(I2
g130
tp702
a(I3
g128
tp703
a(I0
g190
tp704
a(I1
g186
tp705
a(I2
g128
tp706
a(I3
g128
tp707
a(I0
g190
tp708
a(I1
g186
tp709
a(I2
g190
tp710
a(I3
g128
tp711
a(I0
g128
tp712
a(I1
g130
tp713
a(I2
g190
tp714
a(I3
g128
tp715
a(I0
g190
tp716
a(I1
g130
tp717
a(I2
g130
tp718
a(I3
g128
tp719
a(I0
g248
tp720
a(I1
g130
tp721
a(I2
g130
tp722
a(I3
g128
tp723
a(I0
g186
tp724
a(I1
g130
tp725
a(I2
g130
tp726
a(I3
g128
tp727
a(I0
g130
tp728
a(I1
g186
tp729
a(I2
g130
tp730
a(I3
g128
tp731
a(I0
g186
tp732
asS'length'
p733
I600
sS'agents'
p734
(lp735
(igame
Agent
p736
(dp737
S'index'
p738
I0
sba(igame
Agent
p739
(dp740
g738
I0
sba(igame
Agent
p741
(dp742
g738
I0
sba(igame
Agent
p743
(dp744
g738
I0
sbasS'redTeamName'
p745
S'PacStreetsPac'
p746
s.