(dp1
S'startingTeam'
p2
I0
sS'layout'
p3
(ilayout
Layout
p4
(dp5
S'capsules'
p6
(lp7
(I32
I4
tp8
a(I10
I6
tp9
a(I23
I11
tp10
a(I1
I13
tp11
asS'numGhosts'
p12
I4
sS'food'
p13
(igame
Grid
p14
(dp15
S'CELLS_PER_INT'
p16
I30
sS'width'
p17
I34
sS'data'
p18
(lp19
(lp20
I00
aI00
aI00
aI00
aI00
aI00
aI00
aI00
aI00
aI00
aI00
aI00
aI00
aI00
aI00
aI00
aI00
aI00
aa(lp21
I00
aI00
aI00
aI00
aI00
aI00
aI00
aI00
aI00
aI00
aI01
aI00
aI00
aI00
aI00
aI00
aI01
aI00
aa(lp22
I00
aI00
aI00
aI00
aI00
aI00
aI00
aI00
aI00
aI00
aI00
aI00
aI00
aI00
aI00
aI00
aI01
aI00
aa(lp23
I00
aI00
aI00
aI00
aI00
aI00
aI00
aI00
aI00
aI00
aI00
aI00
aI00
aI00
aI00
aI00
aI00
aI00
aa(lp24
I00
aI00
aI00
aI00
aI00
aI01
aI01
aI01
aI00
aI01
aI01
aI00
aI00
aI01
aI00
aI00
aI00
aI00
aa(lp25
I00
aI00
aI00
aI00
aI00
aI00
aI00
aI00
aI00
aI00
aI00
aI00
aI00
aI00
aI00
aI00
aI00
aI00
aa(lp26
I00
aI00
aI00
aI00
aI00
aI00
aI00
aI00
aI00
aI01
aI00
aI00
aI00
aI00
aI00
aI00
aI01
aI00
aa(lp27
I00
aI01
aI00
aI00
aI00
aI00
aI00
aI00
aI00
aI00
aI00
aI00
aI00
aI00
aI00
aI00
aI00
aI00
aa(lp28
I00
aI00
aI00
aI00
aI01
aI00
aI00
aI00
aI00
aI00
aI01
aI00
aI00
aI01
aI00
aI00
aI01
aI00
aa(lp29
I00
aI01
aI00
aI00
aI00
aI00
aI00
aI00
aI00
aI01
aI00
aI00
aI00
aI00
aI00
aI00
aI00
aI00
aa(lp30
I00
aI00
aI00
aI00
aI00
aI00
aI00
aI00
aI00
aI00
aI00
aI00
aI00
aI01
aI00
aI00
aI01
aI00
aa(lp31
I00
aI00
aI00
aI00
aI00
aI00
aI00
aI00
aI00
aI00
aI00
aI00
aI00
aI00
aI00
aI00
aI00
aI00
aa(lp32
I00
aI01
aI01
aI00
aI01
aI01
aI00
aI00
aI00
aI00
aI01
aI00
aI00
aI00
aI00
aI00
aI00
aI00
aa(lp33
I00
aI00
aI00
aI00
aI00
aI00
aI00
aI00
aI00
aI00
aI00
aI00
aI00
aI00
aI00
aI00
aI00
aI00
aa(lp34
I00
aI01
aI01
aI00
aI01
aI01
aI00
aI00
aI00
aI00
aI00
aI00
aI00
aI00
aI00
aI00
aI01
aI00
aa(lp35
I00
aI00
aI00
aI00
aI00
aI00
aI00
aI00
aI00
aI00
aI00
aI00
aI00
aI00
aI00
aI00
aI00
aI00
aa(lp36
I00
aI00
aI00
aI00
aI00
aI00
aI00
aI00
aI00
aI00
aI00
aI00
aI00
aI00
aI00
aI00
aI00
aI00
aa(lp37
I00
aI00
aI00
aI00
aI00
aI00
aI00
aI00
aI00
aI00
aI00
aI00
aI00
aI00
aI00
aI00
aI00
aI00
aa(lp38
I00
aI00
aI00
aI00
aI00
aI00
aI00
aI00
aI00
aI00
aI00
aI00
aI00
aI00
aI00
aI00
aI00
aI00
aa(lp39
I00
aI01
aI00
aI00
aI00
aI00
aI00
aI00
aI00
aI00
aI00
aI00
aI01
aI01
aI00
aI01
aI01
aI00
aa(lp40
I00
aI00
aI00
aI00
aI00
aI00
aI00
aI00
aI00
aI00
aI00
aI00
aI00
aI00
aI00
aI00
aI00
aI00
aa(lp41
I00
aI00
aI00
aI00
aI00
aI00
aI00
aI01
aI00
aI00
aI00
aI00
aI01
aI01
aI00
aI01
aI01
aI00
aa(lp42
I00
aI00
aI00
aI00
aI00
aI00
aI00
aI00
aI00
aI00
aI00
aI00
aI00
aI00
aI00
aI00
aI00
aI00
aa(lp43
I00
aI01
aI00
aI00
aI01
aI00
aI00
aI00
aI00
aI00
aI00
aI00
aI00
aI00
aI00
aI00
aI00
aI00
aa(lp44
I00
aI00
aI00
aI00
aI00
aI00
aI00
aI00
aI01
aI00
aI00
aI00
aI00
aI00
aI00
aI00
aI01
aI00
aa(lp45
I00
aI01
aI00
aI00
aI01
aI00
aI00
aI01
aI00
aI00
aI00
aI00
aI00
aI01
aI00
aI00
aI00
aI00
aa(lp46
I00
aI00
aI00
aI00
aI00
aI00
aI00
aI00
aI00
aI00
aI00
aI00
aI00
aI00
aI00
aI00
aI01
aI00
aa(lp47
I00
aI01
aI00
aI00
aI00
aI00
aI00
aI00
aI01
aI00
aI00
aI00
aI00
aI00
aI00
aI00
aI00
aI00
aa(lp48
I00
aI00
aI00
aI00
aI00
aI00
aI00
aI00
aI00
aI00
aI00
aI00
aI00
aI00
aI00
aI00
aI00
aI00
aa(lp49
I00
aI00
aI00
aI00
aI01
aI00
aI00
aI01
aI01
aI00
aI01
aI01
aI01
aI00
aI00
aI00
aI00
aI00
aa(lp50
I00
aI00
aI00
aI00
aI00
aI00
aI00
aI00
aI00
aI00
aI00
aI00
aI00
aI00
aI00
aI00
aI00
aI00
aa(lp51
I00
aI01
aI00
aI00
aI00
aI00
aI00
aI00
aI00
aI00
aI00
aI00
aI00
aI00
aI00
aI00
aI00
aI00
aa(lp52
I00
aI01
aI00
aI00
aI00
aI00
aI00
aI01
aI00
aI00
aI00
aI00
aI00
aI00
aI00
aI00
aI00
aI00
aa(lp53
I00
aI00
aI00
aI00
aI00
aI00
aI00
aI00
aI00
aI00
aI00
aI00
aI00
aI00
aI00
aI00
aI00
aI00
aasS'height'
p54
I18
sbsS'agentPositions'
p55
(lp56
(I00
(I1
I2
tp57
tp58
a(I00
(I32
I15
tp59
tp60
a(I00
(I1
I1
tp61
tp62
a(I00
(I32
I16
tp63
tp64
asg54
I18
sg17
I34
sS'walls'
p65
(igame
Grid
p66
(dp67
g16
I30
sg17
I34
sg18
(lp68
(lp69
I01
aI01
aI01
aI01
aI01
aI01
aI01
aI01
aI01
aI01
aI01
aI01
aI01
aI01
aI01
aI01
aI01
aI01
aa(lp70
I01
aI00
aI00
aI00
aI00
aI00
aI00
aI01
aI00
aI00
aI00
aI00
aI00
aI00
aI00
aI01
aI00
aI01
aa(lp71
I01
aI00
aI01
aI00
aI00
aI01
aI00
aI00
aI00
aI00
aI00
aI00
aI00
aI00
aI00
aI01
aI00
aI01
aa(lp72
I01
aI00
aI01
aI01
aI01
aI01
aI01
aI01
aI01
aI01
aI00
aI01
aI01
aI01
aI01
aI01
aI00
aI01
aa(lp73
I01
aI00
aI01
aI00
aI00
aI00
aI00
aI00
aI01
aI00
aI00
aI00
aI00
aI00
aI00
aI01
aI00
aI01
aa(lp74
I01
aI00
aI01
aI01
aI00
aI01
aI01
aI01
aI01
aI01
aI00
aI01
aI01
aI01
aI00
aI00
aI00
aI01
aa(lp75
I01
aI00
aI00
aI00
aI00
aI00
aI00
aI00
aI00
aI00
aI00
aI00
aI00
aI00
aI00
aI01
aI00
aI01
aa(lp76
I01
aI00
aI01
aI01
aI01
aI01
aI00
aI01
aI01
aI01
aI01
aI01
aI01
aI01
aI01
aI01
aI01
aI01
aa(lp77
I01
aI00
aI01
aI00
aI00
aI00
aI00
aI00
aI00
aI01
aI00
aI00
aI00
aI00
aI00
aI00
aI00
aI01
aa(lp78
I01
aI00
aI01
aI00
aI01
aI01
aI01
aI01
aI00
aI00
aI00
aI01
aI01
aI01
aI01
aI00
aI01
aI01
aa(lp79
I01
aI00
aI00
aI00
aI00
aI00
aI00
aI00
aI00
aI00
aI00
aI00
aI00
aI00
aI00
aI00
aI00
aI01
aa(lp80
I01
aI01
aI00
aI01
aI01
aI01
aI01
aI01
aI01
aI00
aI01
aI01
aI01
aI01
aI01
aI00
aI01
aI01
aa(lp81
I01
aI00
aI00
aI01
aI00
aI00
aI00
aI00
aI00
aI00
aI00
aI00
aI00
aI00
aI00
aI00
aI00
aI01
aa(lp82
I01
aI01
aI00
aI01
aI01
aI01
aI01
aI01
aI01
aI01
aI01
aI01
aI01
aI00
aI01
aI01
aI00
aI01
aa(lp83
I01
aI00
aI00
aI00
aI00
aI00
aI00
aI00
aI00
aI00
aI00
aI00
aI00
aI00
aI00
aI01
aI00
aI01
aa(lp84
I01
aI01
aI01
aI01
aI01
aI01
aI00
aI01
aI01
aI01
aI01
aI01
aI01
aI01
aI00
aI00
aI00
aI01
aa(lp85
I01
aI00
aI00
aI00
aI00
aI00
aI00
aI00
aI00
aI00
aI00
aI00
aI00
aI00
aI00
aI00
aI00
aI01
aa(lp86
I01
aI00
aI00
aI00
aI00
aI00
aI00
aI00
aI00
aI00
aI00
aI00
aI00
aI00
aI00
aI00
aI00
aI01
aa(lp87
I01
aI00
aI00
aI00
aI01
aI01
aI01
aI01
aI01
aI01
aI01
aI00
aI01
aI01
aI01
aI01
aI01
aI01
aa(lp88
I01
aI00
aI01
aI00
aI00
aI00
aI00
aI00
aI00
aI00
aI00
aI00
aI00
aI00
aI00
aI00
aI00
aI01
aa(lp89
I01
aI00
aI01
aI01
aI00
aI01
aI01
aI01
aI01
aI01
aI01
aI01
aI01
aI01
aI01
aI00
aI01
aI01
aa(lp90
I01
aI00
aI00
aI00
aI00
aI00
aI00
aI00
aI00
aI00
aI00
aI00
aI00
aI00
aI01
aI00
aI00
aI01
aa(lp91
I01
aI01
aI00
aI01
aI01
aI01
aI01
aI01
aI00
aI01
aI01
aI01
aI01
aI01
aI01
aI00
aI01
aI01
aa(lp92
I01
aI00
aI00
aI00
aI00
aI00
aI00
aI00
aI00
aI00
aI00
aI00
aI00
aI00
aI00
aI00
aI00
aI01
aa(lp93
I01
aI01
aI00
aI01
aI01
aI01
aI01
aI00
aI00
aI00
aI01
aI01
aI01
aI01
aI00
aI01
aI00
aI01
aa(lp94
I01
aI00
aI00
aI00
aI00
aI00
aI00
aI00
aI01
aI00
aI00
aI00
aI00
aI00
aI00
aI01
aI00
aI01
aa(lp95
I01
aI01
aI01
aI01
aI01
aI01
aI01
aI01
aI01
aI01
aI01
aI00
aI01
aI01
aI01
aI01
aI00
aI01
aa(lp96
I01
aI00
aI01
aI00
aI00
aI00
aI00
aI00
aI00
aI00
aI00
aI00
aI00
aI00
aI00
aI00
aI00
aI01
aa(lp97
I01
aI00
aI00
aI00
aI01
aI01
aI01
aI00
aI01
aI01
aI01
aI01
aI01
aI00
aI01
aI01
aI00
aI01
aa(lp98
I01
aI00
aI01
aI00
aI00
aI00
aI00
aI00
aI00
aI01
aI00
aI00
aI00
aI00
aI00
aI01
aI00
aI01
aa(lp99
I01
aI00
aI01
aI01
aI01
aI01
aI01
aI00
aI01
aI01
aI01
aI01
aI01
aI01
aI01
aI01
aI00
aI01
aa(lp100
I01
aI00
aI01
aI00
aI00
aI00
aI00
aI00
aI00
aI00
aI00
aI00
aI01
aI00
aI00
aI01
aI00
aI01
aa(lp101
I01
aI00
aI01
aI00
aI00
aI00
aI00
aI00
aI00
aI00
aI01
aI00
aI00
aI00
aI00
aI00
aI00
aI01
aa(lp102
I01
aI01
aI01
aI01
aI01
aI01
aI01
aI01
aI01
aI01
aI01
aI01
aI01
aI01
aI01
aI01
aI01
aI01
aasg54
I18
sbsS'totalFood'
p103
I60
sS'layoutText'
p104
(lp105
S'%%%%%%%%%%%%%%%%%%%%%%%%%%%%%%%%%%'
p106
aS'%..   .%.%.%  .   %.%.% . .     4%'
p107
aS'%%%%% %%     %%   %. .  %%% %%%%2%'
p108
aS'%  %   % % % %    % %%%   % % %  %'
p109
aS'%o %.% %.%.%   %  %.%.% %.%   %  %'
p110
aS'%  % % % % % % %  %.%.% % % %.%% %'
p111
aS'%  % % % % % % %    % %o%   %.%  %'
p112
aS'%.  .  %.  %.% %  % % % % % %.% %%'
p113
aS'%  %.%.%%.   % %  % % %   % %%%  %'
p114
aS'%  %%% %   % % %  % %   .%%.%.%  %'
p115
aS'%% %.% % % % % %  % %.%  .%  .  .%'
p116
aS'%  %.%   %o% %    % % % % % % %  %'
p117
aS'% %%.% % % %.%.%  % % % % % % %  %'
p118
aS'%  %   %.% %.%.%  %   %.%.% %.% o%'
p119
aS'%  % % %   %%% %    % % % %   %  %'
p120
aS'%1%%%% %%%  . .%   %%     %% %%%%%'
p121
aS'%3     . . %.%.%   .  %.%.%.   ..%'
p122
aS'%%%%%%%%%%%%%%%%%%%%%%%%%%%%%%%%%%'
p123
asbsS'blueTeamName'
p124
S'Chompers'
p125
sS'actions'
p126
(lp127
(I0
S'South'
p128
tp129
a(I1
g128
tp130
a(I2
S'East'
p131
tp132
a(I3
S'West'
p133
tp134
a(I0
g131
tp135
a(I1
g128
tp136
a(I2
g131
tp137
a(I3
g133
tp138
a(I0
g131
tp139
a(I1
g128
tp140
a(I2
g131
tp141
a(I3
g133
tp142
a(I0
g131
tp143
a(I1
g128
tp144
a(I2
g131
tp145
a(I3
g133
tp146
a(I0
g131
tp147
a(I1
g133
tp148
a(I2
g131
tp149
a(I3
g133
tp150
a(I0
g131
tp151
a(I1
g128
tp152
a(I2
g131
tp153
a(I3
g133
tp154
a(I0
g131
tp155
a(I1
g128
tp156
a(I2
g131
tp157
a(I3
g133
tp158
a(I0
g131
tp159
a(I1
g128
tp160
a(I2
g131
tp161
a(I3
g133
tp162
a(I0
g131
tp163
a(I1
g131
tp164
a(I2
g131
tp165
a(I3
g133
tp166
a(I0
g131
tp167
a(I1
g128
tp168
a(I2
S'North'
p169
tp170
a(I3
g128
tp171
a(I0
g169
tp172
a(I1
g128
tp173
a(I2
g131
tp174
a(I3
g133
tp175
a(I0
g131
tp176
a(I1
g128
tp177
a(I2
g131
tp178
a(I3
g133
tp179
a(I0
g131
tp180
a(I1
g128
tp181
a(I2
g131
tp182
a(I3
g133
tp183
a(I0
g131
tp184
a(I1
g133
tp185
a(I2
g131
tp186
a(I3
g133
tp187
a(I0
g131
tp188
a(I1
g131
tp189
a(I2
g169
tp190
a(I3
g128
tp191
a(I0
g169
tp192
a(I1
g133
tp193
a(I2
g169
tp194
a(I3
g128
tp195
a(I0
g169
tp196
a(I1
g131
tp197
a(I2
g169
tp198
a(I3
g128
tp199
a(I0
g169
tp200
a(I1
g133
tp201
a(I2
g169
tp202
a(I3
g128
tp203
a(I0
g169
tp204
a(I1
g131
tp205
a(I2
g131
tp206
a(I3
g133
tp207
a(I0
g131
tp208
a(I1
g128
tp209
a(I2
g131
tp210
a(I3
g133
tp211
a(I0
g131
tp212
a(I1
g169
tp213
a(I2
g169
tp214
a(I3
g169
tp215
a(I0
g131
tp216
a(I1
g133
tp217
a(I2
g169
tp218
a(I3
g133
tp219
a(I0
g128
tp220
a(I1
g169
tp221
a(I2
g169
tp222
a(I3
g169
tp223
a(I0
g128
tp224
a(I1
g169
tp225
a(I2
g169
tp226
a(I3
g169
tp227
a(I0
g128
tp228
a(I1
g169
tp229
a(I2
g169
tp230
a(I3
g133
tp231
a(I0
g131
tp232
a(I1
g133
tp233
a(I2
g169
tp234
a(I3
g169
tp235
a(I0
g128
tp236
a(I1
g133
tp237
a(I2
g169
tp238
a(I3
g169
tp239
a(I0
g128
tp240
a(I1
g133
tp241
a(I2
g169
tp242
a(I3
g133
tp243
a(I0
g131
tp244
a(I1
g133
tp245
a(I2
g133
tp246
a(I3
g133
tp247
a(I0
g133
tp248
a(I1
g169
tp249
a(I2
g169
tp250
a(I3
g133
tp251
a(I0
g169
tp252
a(I1
g169
tp253
a(I2
g169
tp254
a(I3
g128
tp255
a(I0
g133
tp256
a(I1
g169
tp257
a(I2
g133
tp258
a(I3
g133
tp259
a(I0
g133
tp260
a(I1
g169
tp261
a(I2
g133
tp262
a(I3
g133
tp263
a(I0
g131
tp264
a(I1
g133
tp265
a(I2
g133
tp266
a(I3
g169
tp267
a(I0
g128
tp268
a(I1
g133
tp269
a(I2
g128
tp270
a(I3
g128
tp271
a(I0
g131
tp272
a(I1
g128
tp273
a(I2
g133
tp274
a(I3
g131
tp275
a(I0
g131
tp276
a(I1
g128
tp277
a(I2
g131
tp278
a(I3
g133
tp279
a(I0
g131
tp280
a(I1
g133
tp281
a(I2
g128
tp282
a(I3
g133
tp283
a(I0
g131
tp284
a(I1
g128
tp285
a(I2
g128
tp286
a(I3
g133
tp287
a(I0
g169
tp288
a(I1
g128
tp289
a(I2
g131
tp290
a(I3
g133
tp291
a(I0
g131
tp292
a(I1
g133
tp293
a(I2
g131
tp294
a(I3
g133
tp295
a(I0
g131
tp296
a(I1
g128
tp297
a(I2
g169
tp298
a(I3
g133
tp299
a(I0
g128
tp300
a(I1
g128
tp301
a(I2
g131
tp302
a(I3
g133
tp303
a(I0
g169
tp304
a(I1
g128
tp305
a(I2
g131
tp306
a(I3
g133
tp307
a(I0
g133
tp308
a(I1
g128
tp309
a(I2
g128
tp310
a(I3
g133
tp311
a(I0
g133
tp312
a(I1
g128
tp313
a(I2
g128
tp314
a(I3
g128
tp315
a(I0
g169
tp316
a(I1
g133
tp317
a(I2
g128
tp318
a(I3
g133
tp319
a(I0
g169
tp320
a(I1
g133
tp321
a(I2
g128
tp322
a(I3
g133
tp323
a(I0
g133
tp324
a(I1
g169
tp325
a(I2
g128
tp326
a(I3
g133
tp327
a(I0
g133
tp328
a(I1
g169
tp329
a(I2
S'Stop'
p330
tp331
a(I3
g133
tp332
a(I0
g128
tp333
a(I1
g133
tp334
a(I2
g330
tp335
a(I3
g128
tp336
a(I0
g133
tp337
a(I1
g133
tp338
a(I2
g330
tp339
a(I3
g128
tp340
a(I0
g133
tp341
a(I1
g128
tp342
a(I2
g128
tp343
a(I3
g128
tp344
a(I0
g133
tp345
a(I1
g169
tp346
a(I2
g330
tp347
a(I3
g128
tp348
a(I0
g169
tp349
a(I1
g131
tp350
a(I2
g128
tp351
a(I3
g133
tp352
a(I0
g169
tp353
a(I1
g131
tp354
a(I2
g330
tp355
a(I3
g133
tp356
a(I0
g169
tp357
a(I1
g169
tp358
a(I2
g169
tp359
a(I3
g128
tp360
a(I0
g133
tp361
a(I1
g169
tp362
a(I2
g330
tp363
a(I3
g133
tp364
a(I0
g133
tp365
a(I1
g169
tp366
a(I2
g128
tp367
a(I3
g128
tp368
a(I0
g128
tp369
a(I1
g169
tp370
a(I2
g128
tp371
a(I3
g128
tp372
a(I0
g128
tp373
a(I1
g131
tp374
a(I2
g128
tp375
a(I3
g128
tp376
a(I0
g128
tp377
a(I1
g131
tp378
a(I2
g128
tp379
a(I3
g128
tp380
a(I0
g330
tp381
a(I1
g169
tp382
a(I2
g128
tp383
a(I3
g133
tp384
a(I0
g330
tp385
a(I1
g169
tp386
a(I2
g169
tp387
a(I3
g133
tp388
a(I0
g330
tp389
a(I1
g169
tp390
a(I2
g169
tp391
a(I3
g128
tp392
a(I0
g330
tp393
a(I1
g128
tp394
a(I2
g169
tp395
a(I3
g128
tp396
a(I0
g330
tp397
a(I1
g169
tp398
a(I2
g133
tp399
a(I3
g128
tp400
a(I0
g330
tp401
a(I1
g330
tp402
a(I2
g131
tp403
a(I3
g133
tp404
a(I0
g330
tp405
a(I1
g128
tp406
a(I2
g169
tp407
a(I3
g133
tp408
a(I0
g330
tp409
a(I1
g169
tp410
a(I2
g169
tp411
a(I3
g133
tp412
a(I0
g330
tp413
a(I1
g330
tp414
a(I2
g169
tp415
a(I3
g133
tp416
a(I0
g330
tp417
a(I1
g330
tp418
a(I2
g169
tp419
a(I3
g133
tp420
a(I0
g330
tp421
a(I1
g330
tp422
a(I2
g169
tp423
a(I3
g133
tp424
a(I0
g330
tp425
a(I1
g330
tp426
a(I2
g169
tp427
a(I3
g133
tp428
a(I0
g330
tp429
a(I1
g128
tp430
a(I2
g169
tp431
a(I3
g133
tp432
a(I0
g330
tp433
a(I1
g169
tp434
a(I2
g330
tp435
a(I3
g133
tp436
a(I0
g330
tp437
a(I1
g330
tp438
a(I2
g330
tp439
a(I3
g128
tp440
a(I0
g330
tp441
a(I1
g330
tp442
a(I2
g330
tp443
a(I3
g133
tp444
a(I0
g330
tp445
a(I1
g330
tp446
a(I2
g330
tp447
a(I3
g133
tp448
a(I0
g330
tp449
a(I1
g169
tp450
a(I2
g330
tp451
a(I3
g133
tp452
a(I0
g330
tp453
a(I1
g128
tp454
a(I2
g330
tp455
a(I3
g133
tp456
a(I0
g330
tp457
a(I1
g169
tp458
a(I2
g330
tp459
a(I3
g128
tp460
a(I0
g330
tp461
a(I1
g128
tp462
a(I2
g128
tp463
a(I3
g128
tp464
a(I0
g330
tp465
a(I1
g330
tp466
a(I2
g330
tp467
a(I3
g128
tp468
a(I0
g330
tp469
a(I1
g128
tp470
a(I2
g128
tp471
a(I3
g128
tp472
a(I0
g330
tp473
a(I1
g169
tp474
a(I2
g330
tp475
a(I3
g133
tp476
a(I0
g330
tp477
a(I1
g169
tp478
a(I2
g169
tp479
a(I3
g133
tp480
a(I0
g330
tp481
a(I1
g128
tp482
a(I2
g169
tp483
a(I3
g133
tp484
a(I0
g330
tp485
a(I1
g169
tp486
a(I2
g169
tp487
a(I3
g128
tp488
a(I0
g330
tp489
a(I1
g128
tp490
a(I2
g128
tp491
a(I3
g128
tp492
a(I0
g330
tp493
a(I1
g169
tp494
a(I2
g128
tp495
a(I3
g128
tp496
a(I0
g330
tp497
a(I1
g128
tp498
a(I2
g128
tp499
a(I3
g128
tp500
a(I0
g330
tp501
a(I1
g128
tp502
a(I2
g128
tp503
a(I3
g128
tp504
a(I0
g330
tp505
a(I1
g169
tp506
a(I2
g128
tp507
a(I3
g133
tp508
a(I0
g330
tp509
a(I1
g330
tp510
a(I2
g128
tp511
a(I3
g133
tp512
a(I0
g330
tp513
a(I1
g128
tp514
a(I2
g128
tp515
a(I3
g128
tp516
a(I0
g330
tp517
a(I1
g169
tp518
a(I2
g128
tp519
a(I3
g128
tp520
a(I0
g330
tp521
a(I1
g330
tp522
a(I2
g133
tp523
a(I3
g169
tp524
a(I0
g330
tp525
a(I1
g330
tp526
a(I2
g133
tp527
a(I3
g128
tp528
a(I0
g330
tp529
a(I1
g169
tp530
a(I2
g128
tp531
a(I3
g169
tp532
a(I0
g330
tp533
a(I1
g128
tp534
a(I2
g169
tp535
a(I3
g133
tp536
a(I0
g330
tp537
a(I1
g128
tp538
a(I2
g131
tp539
a(I3
g133
tp540
a(I0
g330
tp541
a(I1
g169
tp542
a(I2
g131
tp543
a(I3
g133
tp544
a(I0
g330
tp545
a(I1
g330
tp546
a(I2
g169
tp547
a(I3
g133
tp548
a(I0
g330
tp549
a(I1
g128
tp550
a(I2
g169
tp551
a(I3
g133
tp552
a(I0
g330
tp553
a(I1
g169
tp554
a(I2
g169
tp555
a(I3
g133
tp556
a(I0
g330
tp557
a(I1
g330
tp558
a(I2
g169
tp559
a(I3
g133
tp560
a(I0
g330
tp561
a(I1
g330
tp562
a(I2
g169
tp563
a(I3
g133
tp564
a(I0
g330
tp565
a(I1
g169
tp566
a(I2
g169
tp567
a(I3
g133
tp568
a(I0
g330
tp569
a(I1
g128
tp570
a(I2
g169
tp571
a(I3
g128
tp572
a(I0
g330
tp573
a(I1
g330
tp574
a(I2
g330
tp575
a(I3
g133
tp576
a(I0
g330
tp577
a(I1
g169
tp578
a(I2
g330
tp579
a(I3
g133
tp580
a(I0
g330
tp581
a(I1
g128
tp582
a(I2
g330
tp583
a(I3
g133
tp584
a(I0
g330
tp585
a(I1
g128
tp586
a(I2
g128
tp587
a(I3
g133
tp588
a(I0
g330
tp589
a(I1
g169
tp590
a(I2
g169
tp591
a(I3
g128
tp592
a(I0
g330
tp593
a(I1
g169
tp594
a(I2
g330
tp595
a(I3
g128
tp596
a(I0
g330
tp597
a(I1
g128
tp598
a(I2
g128
tp599
a(I3
g128
tp600
a(I0
g330
tp601
a(I1
g169
tp602
a(I2
g330
tp603
a(I3
g128
tp604
a(I0
g330
tp605
a(I1
g128
tp606
a(I2
g128
tp607
a(I3
g133
tp608
a(I0
g330
tp609
a(I1
g128
tp610
a(I2
g169
tp611
a(I3
g133
tp612
a(I0
g330
tp613
a(I1
g169
tp614
a(I2
g169
tp615
a(I3
g128
tp616
a(I0
g330
tp617
a(I1
g128
tp618
a(I2
g128
tp619
a(I3
g128
tp620
a(I0
g330
tp621
a(I1
g169
tp622
a(I2
g128
tp623
a(I3
g128
tp624
a(I0
g330
tp625
a(I1
g128
tp626
a(I2
g128
tp627
a(I3
g133
tp628
a(I0
g330
tp629
a(I1
g169
tp630
a(I2
g169
tp631
a(I3
g128
tp632
a(I0
g330
tp633
a(I1
g330
tp634
a(I2
g128
tp635
a(I3
g128
tp636
a(I0
g330
tp637
a(I1
g169
tp638
a(I2
g128
tp639
a(I3
g133
tp640
a(I0
g330
tp641
a(I1
g128
tp642
a(I2
g128
tp643
a(I3
g133
tp644
a(I0
g330
tp645
a(I1
g128
tp646
a(I2
g128
tp647
a(I3
g128
tp648
a(I0
g330
tp649
a(I1
g169
tp650
a(I2
g128
tp651
a(I3
g128
tp652
a(I0
g330
tp653
a(I1
g128
tp654
a(I2
g133
tp655
a(I3
g169
tp656
a(I0
g330
tp657
a(I1
g169
tp658
a(I2
g133
tp659
a(I3
g128
tp660
a(I0
g330
tp661
a(I1
g128
tp662
a(I2
g128
tp663
a(I3
g169
tp664
a(I0
g330
tp665
a(I1
g169
tp666
a(I2
g169
tp667
a(I3
g133
tp668
a(I0
g330
tp669
a(I1
g169
tp670
a(I2
g131
tp671
a(I3
g133
tp672
a(I0
g330
tp673
a(I1
g128
tp674
a(I2
g131
tp675
a(I3
g133
tp676
a(I0
g330
tp677
a(I1
g330
tp678
a(I2
g169
tp679
a(I3
g133
tp680
a(I0
g330
tp681
a(I1
g330
tp682
a(I2
g169
tp683
a(I3
g133
tp684
a(I0
g330
tp685
a(I1
g169
tp686
a(I2
g169
tp687
a(I3
g133
tp688
a(I0
g330
tp689
a(I1
g128
tp690
a(I2
g169
tp691
a(I3
g133
tp692
a(I0
g330
tp693
a(I1
g128
tp694
a(I2
g169
tp695
a(I3
g133
tp696
a(I0
g330
tp697
a(I1
g169
tp698
a(I2
g169
tp699
a(I3
g133
tp700
a(I0
g330
tp701
a(I1
g330
tp702
a(I2
g169
tp703
a(I3
g128
tp704
a(I0
g330
tp705
a(I1
g330
tp706
a(I2
g330
tp707
a(I3
g133
tp708
a(I0
g330
tp709
a(I1
g128
tp710
a(I2
g128
tp711
a(I3
g133
tp712
a(I0
g330
tp713
a(I1
g169
tp714
a(I2
g169
tp715
a(I3
g133
tp716
a(I0
g330
tp717
a(I1
g169
tp718
a(I2
g330
tp719
a(I3
g133
tp720
a(I0
g330
tp721
a(I1
g128
tp722
a(I2
g330
tp723
a(I3
g128
tp724
a(I0
g330
tp725
a(I1
g169
tp726
a(I2
g330
tp727
a(I3
g128
tp728
a(I0
g330
tp729
a(I1
g128
tp730
a(I2
g128
tp731
a(I3
g128
tp732
asS'length'
p733
I600
sS'agents'
p734
(lp735
(igame
Agent
p736
(dp737
S'index'
p738
I0
sba(igame
Agent
p739
(dp740
g738
I0
sba(igame
Agent
p741
(dp742
g738
I0
sba(igame
Agent
p743
(dp744
g738
I0
sbasS'redTeamName'
p745
S'PacStreetsPac'
p746
s.