(dp1
S'startingTeam'
p2
I0
sS'layout'
p3
(ilayout
Layout
p4
(dp5
S'capsules'
p6
(lp7
(I26
I1
tp8
a(I10
I3
tp9
a(I23
I14
tp10
a(I7
I16
tp11
asS'numGhosts'
p12
I4
sS'food'
p13
(igame
Grid
p14
(dp15
S'CELLS_PER_INT'
p16
I30
sS'width'
p17
I34
sS'data'
p18
(lp19
(lp20
I00
aI00
aI00
aI00
aI00
aI00
aI00
aI00
aI00
aI00
aI00
aI00
aI00
aI00
aI00
aI00
aI00
aI00
aa(lp21
I00
aI00
aI00
aI00
aI00
aI00
aI00
aI00
aI00
aI00
aI00
aI00
aI00
aI00
aI00
aI00
aI01
aI00
aa(lp22
I00
aI00
aI00
aI00
aI00
aI00
aI00
aI00
aI00
aI00
aI00
aI00
aI00
aI00
aI01
aI00
aI01
aI00
aa(lp23
I00
aI00
aI00
aI00
aI00
aI00
aI00
aI00
aI00
aI00
aI00
aI00
aI00
aI00
aI00
aI00
aI00
aI00
aa(lp24
I00
aI00
aI00
aI00
aI00
aI01
aI00
aI01
aI00
aI00
aI01
aI01
aI00
aI00
aI00
aI00
aI01
aI00
aa(lp25
I00
aI00
aI00
aI00
aI00
aI01
aI00
aI00
aI00
aI00
aI00
aI00
aI01
aI00
aI00
aI00
aI01
aI00
aa(lp26
I00
aI00
aI00
aI01
aI00
aI00
aI00
aI00
aI00
aI00
aI00
aI00
aI00
aI00
aI00
aI00
aI00
aI00
aa(lp27
I00
aI00
aI00
aI01
aI00
aI00
aI00
aI00
aI00
aI00
aI00
aI00
aI01
aI00
aI00
aI00
aI00
aI00
aa(lp28
I00
aI00
aI00
aI00
aI00
aI00
aI00
aI00
aI01
aI00
aI00
aI00
aI01
aI00
aI00
aI00
aI00
aI00
aa(lp29
I00
aI01
aI00
aI00
aI00
aI00
aI00
aI00
aI00
aI00
aI00
aI00
aI00
aI00
aI00
aI00
aI00
aI00
aa(lp30
I00
aI00
aI00
aI00
aI00
aI01
aI00
aI00
aI00
aI00
aI00
aI00
aI00
aI00
aI00
aI00
aI00
aI00
aa(lp31
I00
aI00
aI00
aI00
aI00
aI00
aI00
aI00
aI00
aI00
aI00
aI00
aI00
aI00
aI00
aI00
aI00
aI00
aa(lp32
I00
aI01
aI00
aI00
aI00
aI01
aI00
aI00
aI00
aI00
aI01
aI00
aI00
aI00
aI00
aI00
aI01
aI00
aa(lp33
I00
aI01
aI00
aI01
aI00
aI00
aI00
aI00
aI00
aI00
aI00
aI00
aI00
aI00
aI00
aI00
aI00
aI00
aa(lp34
I00
aI01
aI00
aI01
aI00
aI01
aI00
aI00
aI00
aI00
aI00
aI00
aI00
aI01
aI00
aI01
aI01
aI00
aa(lp35
I00
aI00
aI00
aI00
aI00
aI00
aI00
aI00
aI00
aI00
aI00
aI00
aI00
aI00
aI00
aI00
aI00
aI00
aa(lp36
I00
aI00
aI00
aI00
aI00
aI00
aI00
aI00
aI00
aI00
aI00
aI00
aI00
aI00
aI00
aI00
aI00
aI00
aa(lp37
I00
aI00
aI00
aI00
aI00
aI00
aI00
aI00
aI00
aI00
aI00
aI00
aI00
aI00
aI00
aI00
aI00
aI00
aa(lp38
I00
aI00
aI00
aI00
aI00
aI00
aI00
aI00
aI00
aI00
aI00
aI00
aI00
aI00
aI00
aI00
aI00
aI00
aa(lp39
I00
aI01
aI01
aI00
aI01
aI00
aI00
aI00
aI00
aI00
aI00
aI00
aI01
aI00
aI01
aI00
aI01
aI00
aa(lp40
I00
aI00
aI00
aI00
aI00
aI00
aI00
aI00
aI00
aI00
aI00
aI00
aI00
aI00
aI01
aI00
aI01
aI00
aa(lp41
I00
aI01
aI00
aI00
aI00
aI00
aI00
aI01
aI00
aI00
aI00
aI00
aI01
aI00
aI00
aI00
aI01
aI00
aa(lp42
I00
aI00
aI00
aI00
aI00
aI00
aI00
aI00
aI00
aI00
aI00
aI00
aI00
aI00
aI00
aI00
aI00
aI00
aa(lp43
I00
aI00
aI00
aI00
aI00
aI00
aI00
aI00
aI00
aI00
aI00
aI00
aI01
aI00
aI00
aI00
aI00
aI00
aa(lp44
I00
aI00
aI00
aI00
aI00
aI00
aI00
aI00
aI00
aI00
aI00
aI00
aI00
aI00
aI00
aI00
aI01
aI00
aa(lp45
I00
aI00
aI00
aI00
aI00
aI01
aI00
aI00
aI00
aI01
aI00
aI00
aI00
aI00
aI00
aI00
aI00
aI00
aa(lp46
I00
aI00
aI00
aI00
aI00
aI01
aI00
aI00
aI00
aI00
aI00
aI00
aI00
aI00
aI01
aI00
aI00
aI00
aa(lp47
I00
aI00
aI00
aI00
aI00
aI00
aI00
aI00
aI00
aI00
aI00
aI00
aI00
aI00
aI01
aI00
aI00
aI00
aa(lp48
I00
aI01
aI00
aI00
aI00
aI01
aI00
aI00
aI00
aI00
aI00
aI00
aI01
aI00
aI00
aI00
aI00
aI00
aa(lp49
I00
aI01
aI00
aI00
aI00
aI00
aI01
aI01
aI00
aI00
aI01
aI00
aI01
aI00
aI00
aI00
aI00
aI00
aa(lp50
I00
aI00
aI00
aI00
aI00
aI00
aI00
aI00
aI00
aI00
aI00
aI00
aI00
aI00
aI00
aI00
aI00
aI00
aa(lp51
I00
aI01
aI00
aI01
aI00
aI00
aI00
aI00
aI00
aI00
aI00
aI00
aI00
aI00
aI00
aI00
aI00
aI00
aa(lp52
I00
aI01
aI00
aI00
aI00
aI00
aI00
aI00
aI00
aI00
aI00
aI00
aI00
aI00
aI00
aI00
aI00
aI00
aa(lp53
I00
aI00
aI00
aI00
aI00
aI00
aI00
aI00
aI00
aI00
aI00
aI00
aI00
aI00
aI00
aI00
aI00
aI00
aasS'height'
p54
I18
sbsS'agentPositions'
p55
(lp56
(I00
(I1
I2
tp57
tp58
a(I00
(I32
I15
tp59
tp60
a(I00
(I1
I1
tp61
tp62
a(I00
(I32
I16
tp63
tp64
asg54
I18
sg17
I34
sS'walls'
p65
(igame
Grid
p66
(dp67
g16
I30
sg17
I34
sg18
(lp68
(lp69
I01
aI01
aI01
aI01
aI01
aI01
aI01
aI01
aI01
aI01
aI01
aI01
aI01
aI01
aI01
aI01
aI01
aI01
aa(lp70
I01
aI00
aI00
aI00
aI01
aI00
aI00
aI00
aI00
aI00
aI00
aI00
aI00
aI00
aI00
aI00
aI00
aI01
aa(lp71
I01
aI00
aI01
aI00
aI01
aI00
aI00
aI00
aI00
aI00
aI00
aI00
aI00
aI01
aI00
aI01
aI00
aI01
aa(lp72
I01
aI00
aI00
aI00
aI01
aI01
aI01
aI01
aI01
aI01
aI01
aI00
aI01
aI01
aI01
aI01
aI01
aI01
aa(lp73
I01
aI00
aI01
aI00
aI01
aI00
aI01
aI00
aI00
aI01
aI00
aI00
aI00
aI00
aI00
aI01
aI00
aI01
aa(lp74
I01
aI00
aI01
aI01
aI01
aI00
aI01
aI00
aI00
aI01
aI00
aI01
aI00
aI01
aI00
aI01
aI00
aI01
aa(lp75
I01
aI00
aI01
aI00
aI01
aI00
aI01
aI00
aI01
aI01
aI00
aI01
aI01
aI01
aI00
aI01
aI00
aI01
aa(lp76
I01
aI00
aI01
aI00
aI01
aI00
aI01
aI00
aI00
aI01
aI00
aI01
aI00
aI00
aI00
aI00
aI00
aI01
aa(lp77
I01
aI00
aI00
aI00
aI01
aI00
aI00
aI00
aI00
aI01
aI00
aI01
aI00
aI01
aI00
aI00
aI00
aI01
aa(lp78
I01
aI00
aI01
aI00
aI01
aI01
aI01
aI01
aI00
aI01
aI00
aI01
aI01
aI01
aI01
aI00
aI01
aI01
aa(lp79
I01
aI00
aI01
aI00
aI01
aI00
aI00
aI00
aI00
aI00
aI00
aI01
aI00
aI00
aI00
aI00
aI00
aI01
aa(lp80
I01
aI00
aI01
aI00
aI01
aI01
aI00
aI01
aI01
aI01
aI00
aI00
aI00
aI01
aI00
aI00
aI00
aI01
aa(lp81
I01
aI00
aI01
aI00
aI00
aI00
aI00
aI00
aI00
aI00
aI00
aI01
aI00
aI01
aI00
aI01
aI00
aI01
aa(lp82
I01
aI00
aI01
aI00
aI01
aI00
aI00
aI00
aI01
aI00
aI01
aI01
aI00
aI01
aI00
aI01
aI01
aI01
aa(lp83
I01
aI00
aI01
aI00
aI01
aI00
aI01
aI00
aI00
aI00
aI00
aI00
aI00
aI00
aI00
aI00
aI00
aI01
aa(lp84
I01
aI01
aI01
aI01
aI01
aI01
aI01
aI01
aI01
aI00
aI01
aI00
aI01
aI00
aI01
aI01
aI01
aI01
aa(lp85
I01
aI00
aI00
aI00
aI00
aI00
aI00
aI00
aI00
aI00
aI00
aI00
aI00
aI00
aI00
aI00
aI00
aI01
aa(lp86
I01
aI00
aI00
aI00
aI00
aI00
aI00
aI00
aI00
aI00
aI00
aI00
aI00
aI00
aI00
aI00
aI00
aI01
aa(lp87
I01
aI01
aI01
aI01
aI00
aI01
aI00
aI01
aI00
aI01
aI01
aI01
aI01
aI01
aI01
aI01
aI01
aI01
aa(lp88
I01
aI00
aI00
aI00
aI00
aI00
aI00
aI00
aI00
aI00
aI00
aI01
aI00
aI01
aI00
aI01
aI00
aI01
aa(lp89
I01
aI01
aI01
aI00
aI01
aI00
aI01
aI01
aI00
aI01
aI00
aI00
aI00
aI01
aI00
aI01
aI00
aI01
aa(lp90
I01
aI00
aI01
aI00
aI01
aI00
aI01
aI00
aI00
aI00
aI00
aI00
aI00
aI00
aI00
aI01
aI00
aI01
aa(lp91
I01
aI00
aI00
aI00
aI01
aI00
aI00
aI00
aI01
aI01
aI01
aI00
aI01
aI01
aI00
aI01
aI00
aI01
aa(lp92
I01
aI00
aI00
aI00
aI00
aI00
aI01
aI00
aI00
aI00
aI00
aI00
aI00
aI01
aI00
aI01
aI00
aI01
aa(lp93
I01
aI01
aI00
aI01
aI01
aI01
aI01
aI00
aI01
aI00
aI01
aI01
aI01
aI01
aI00
aI01
aI00
aI01
aa(lp94
I01
aI00
aI00
aI00
aI01
aI00
aI01
aI00
aI01
aI00
aI00
aI00
aI00
aI01
aI00
aI00
aI00
aI01
aa(lp95
I01
aI00
aI00
aI00
aI00
aI00
aI01
aI00
aI01
aI00
aI00
aI01
aI00
aI01
aI00
aI01
aI00
aI01
aa(lp96
I01
aI00
aI01
aI00
aI01
aI01
aI01
aI00
aI01
aI01
aI00
aI01
aI00
aI01
aI00
aI01
aI00
aI01
aa(lp97
I01
aI00
aI01
aI00
aI01
aI00
aI01
aI00
aI01
aI00
aI00
aI01
aI00
aI01
aI01
aI01
aI00
aI01
aa(lp98
I01
aI00
aI01
aI00
aI00
aI00
aI00
aI00
aI01
aI00
aI00
aI01
aI00
aI01
aI00
aI01
aI00
aI01
aa(lp99
I01
aI01
aI01
aI01
aI01
aI01
aI00
aI01
aI01
aI01
aI01
aI01
aI01
aI01
aI00
aI00
aI00
aI01
aa(lp100
I01
aI00
aI01
aI00
aI01
aI00
aI00
aI00
aI00
aI00
aI00
aI00
aI00
aI01
aI00
aI01
aI00
aI01
aa(lp101
I01
aI00
aI00
aI00
aI00
aI00
aI00
aI00
aI00
aI00
aI00
aI00
aI00
aI01
aI00
aI00
aI00
aI01
aa(lp102
I01
aI01
aI01
aI01
aI01
aI01
aI01
aI01
aI01
aI01
aI01
aI01
aI01
aI01
aI01
aI01
aI01
aI01
aasg54
I18
sbsS'totalFood'
p103
I60
sS'layoutText'
p104
(lp105
S'%%%%%%%%%%%%%%%%%%%%%%%%%%%%%%%%%%'
p106
aS'%..%.. o %  .%.%  %...  .       4%'
p107
aS'% %%%%%     %%.%  %%%%%%% %%%% %2%'
p108
aS'% .%     %     %  %..  o  ..%    %'
p109
aS'% %% %% %% %%%.   %%% %%%%%%%%%%%%'
p110
aS'%  % .%..%     %  %. .%.%   ..%  %'
p111
aS'%   .%%%%%% %%    %%    % %%%%%  %'
p112
aS'%  %.       .% %  %   % %    .%  %'
p113
aS'%  %%%%%%% %      % % %  . %  %  %'
p114
aS'%  %  % .  % % %      % %%%%%%%  %'
p115
aS'%  %.    % %   %  % %.       .%  %'
p116
aS'%  %%%%% %    %%    %% %%%%%%.   %'
p117
aS'%  %..   %.%. .%  %     %..%. %  %'
p118
aS'%%%%%%%%%%%% %%%   .%%% %% %% %% %'
p119
aS'%    %..  o  ..%  %     %     %. %'
p120
aS'%1% %%%% %%%%%%%  %.%%     %%%%% %'
p121
aS'%3       .  ...%  %.%.  % o ..%..%'
p122
aS'%%%%%%%%%%%%%%%%%%%%%%%%%%%%%%%%%%'
p123
asbsS'blueTeamName'
p124
S'whyAreYouRunning'
p125
sS'actions'
p126
(lp127
(I0
S'South'
p128
tp129
a(I1
S'North'
p130
tp131
a(I2
S'East'
p132
tp133
a(I3
S'West'
p134
tp135
a(I0
g132
tp136
a(I1
g134
tp137
a(I2
g132
tp138
a(I3
g134
tp139
a(I0
g132
tp140
a(I1
g134
tp141
a(I2
g132
tp142
a(I3
g134
tp143
a(I0
g132
tp144
a(I1
g134
tp145
a(I2
g132
tp146
a(I3
g134
tp147
a(I0
g132
tp148
a(I1
g134
tp149
a(I2
g132
tp150
a(I3
g134
tp151
a(I0
g132
tp152
a(I1
g134
tp153
a(I2
g132
tp154
a(I3
g134
tp155
a(I0
g132
tp156
a(I1
g134
tp157
a(I2
g132
tp158
a(I3
g134
tp159
a(I0
g132
tp160
a(I1
g134
tp161
a(I2
g130
tp162
a(I3
g128
tp163
a(I0
g130
tp164
a(I1
g128
tp165
a(I2
g130
tp166
a(I3
g128
tp167
a(I0
g130
tp168
a(I1
g128
tp169
a(I2
g132
tp170
a(I3
g134
tp171
a(I0
g132
tp172
a(I1
g134
tp173
a(I2
g132
tp174
a(I3
g134
tp175
a(I0
g132
tp176
a(I1
g134
tp177
a(I2
g132
tp178
a(I3
g134
tp179
a(I0
g132
tp180
a(I1
g134
tp181
a(I2
g132
tp182
a(I3
g134
tp183
a(I0
g132
tp184
a(I1
g134
tp185
a(I2
g130
tp186
a(I3
g128
tp187
a(I0
g130
tp188
a(I1
g128
tp189
a(I2
g130
tp190
a(I3
g128
tp191
a(I0
g130
tp192
a(I1
g128
tp193
a(I2
g132
tp194
a(I3
g128
tp195
a(I0
g132
tp196
a(I1
g128
tp197
a(I2
g130
tp198
a(I3
g132
tp199
a(I0
g130
tp200
a(I1
g128
tp201
a(I2
g130
tp202
a(I3
g132
tp203
a(I0
g130
tp204
a(I1
g134
tp205
a(I2
g132
tp206
a(I3
g128
tp207
a(I0
g132
tp208
a(I1
g134
tp209
a(I2
g130
tp210
a(I3
g128
tp211
a(I0
g130
tp212
a(I1
g128
tp213
a(I2
g130
tp214
a(I3
g128
tp215
a(I0
g130
tp216
a(I1
g128
tp217
a(I2
g132
tp218
a(I3
g128
tp219
a(I0
g132
tp220
a(I1
g134
tp221
a(I2
g132
tp222
a(I3
g132
tp223
a(I0
g132
tp224
a(I1
g134
tp225
a(I2
g130
tp226
a(I3
g132
tp227
a(I0
g130
tp228
a(I1
g130
tp229
a(I2
g130
tp230
a(I3
g132
tp231
a(I0
g130
tp232
a(I1
g130
tp233
a(I2
g130
tp234
a(I3
g132
tp235
a(I0
g134
tp236
a(I1
g134
tp237
a(I2
g130
tp238
a(I3
g132
tp239
a(I0
S'Stop'
p240
tp241
a(I1
g130
tp242
a(I2
g130
tp243
a(I3
g132
tp244
a(I0
g240
tp245
a(I1
g132
tp246
a(I2
g128
tp247
a(I3
g128
tp248
a(I0
g240
tp249
a(I1
g134
tp250
a(I2
g132
tp251
a(I3
g130
tp252
a(I0
g240
tp253
a(I1
g128
tp254
a(I2
g128
tp255
a(I3
g134
tp256
a(I0
g240
tp257
a(I1
g130
tp258
a(I2
g130
tp259
a(I3
g134
tp260
a(I0
g240
tp261
a(I1
g132
tp262
a(I2
g130
tp263
a(I3
g134
tp264
a(I0
g240
tp265
a(I1
g134
tp266
a(I2
g128
tp267
a(I3
g134
tp268
a(I0
g240
tp269
a(I1
g130
tp270
a(I2
g130
tp271
a(I3
g134
tp272
a(I0
g240
tp273
a(I1
g132
tp274
a(I2
g134
tp275
a(I3
g134
tp276
a(I0
g240
tp277
a(I1
g134
tp278
a(I2
g130
tp279
a(I3
g134
tp280
a(I0
g240
tp281
a(I1
g132
tp282
a(I2
g128
tp283
a(I3
g134
tp284
a(I0
g240
tp285
a(I1
g134
tp286
a(I2
g130
tp287
a(I3
g130
tp288
a(I0
g240
tp289
a(I1
g128
tp290
a(I2
g128
tp291
a(I3
g134
tp292
a(I0
g240
tp293
a(I1
g128
tp294
a(I2
g128
tp295
a(I3
g134
tp296
a(I0
g240
tp297
a(I1
g130
tp298
a(I2
g130
tp299
a(I3
g134
tp300
a(I0
g240
tp301
a(I1
g132
tp302
a(I2
g128
tp303
a(I3
g134
tp304
a(I0
g240
tp305
a(I1
g130
tp306
a(I2
g130
tp307
a(I3
g130
tp308
a(I0
g240
tp309
a(I1
g134
tp310
a(I2
g130
tp311
a(I3
g130
tp312
a(I0
g240
tp313
a(I1
g130
tp314
a(I2
g130
tp315
a(I3
g130
tp316
a(I0
g240
tp317
a(I1
g128
tp318
a(I2
g128
tp319
a(I3
g130
tp320
a(I0
g240
tp321
a(I1
g130
tp322
a(I2
g132
tp323
a(I3
g130
tp324
a(I0
g240
tp325
a(I1
g134
tp326
a(I2
g134
tp327
a(I3
g130
tp328
a(I0
g132
tp329
a(I1
g132
tp330
a(I2
g130
tp331
a(I3
g130
tp332
a(I0
g132
tp333
a(I1
g128
tp334
a(I2
g128
tp335
a(I3
g128
tp336
a(I0
g128
tp337
a(I1
g130
tp338
a(I2
g130
tp339
a(I3
g128
tp340
a(I0
g134
tp341
a(I1
g128
tp342
a(I2
g128
tp343
a(I3
g128
tp344
a(I0
g128
tp345
a(I1
g130
tp346
a(I2
g132
tp347
a(I3
g130
tp348
a(I0
g132
tp349
asS'length'
p350
I600
sS'agents'
p351
(lp352
(igame
Agent
p353
(dp354
S'index'
p355
I0
sba(igame
Agent
p356
(dp357
g355
I0
sba(igame
Agent
p358
(dp359
g355
I0
sba(igame
Agent
p360
(dp361
g355
I0
sbasS'redTeamName'
p362
S'PacStreetsPac'
p363
s.