(dp1
S'startingTeam'
p2
I1
sS'layout'
p3
(ilayout
Layout
p4
(dp5
S'capsules'
p6
(lp7
(I32
I4
tp8
a(I10
I6
tp9
a(I23
I11
tp10
a(I1
I13
tp11
asS'numGhosts'
p12
I4
sS'food'
p13
(igame
Grid
p14
(dp15
S'CELLS_PER_INT'
p16
I30
sS'width'
p17
I34
sS'data'
p18
(lp19
(lp20
I00
aI00
aI00
aI00
aI00
aI00
aI00
aI00
aI00
aI00
aI00
aI00
aI00
aI00
aI00
aI00
aI00
aI00
aa(lp21
I00
aI00
aI00
aI00
aI00
aI00
aI00
aI00
aI00
aI00
aI01
aI00
aI00
aI00
aI00
aI00
aI01
aI00
aa(lp22
I00
aI00
aI00
aI00
aI00
aI00
aI00
aI00
aI00
aI00
aI00
aI00
aI00
aI00
aI00
aI00
aI01
aI00
aa(lp23
I00
aI00
aI00
aI00
aI00
aI00
aI00
aI00
aI00
aI00
aI00
aI00
aI00
aI00
aI00
aI00
aI00
aI00
aa(lp24
I00
aI00
aI00
aI00
aI00
aI01
aI01
aI01
aI00
aI01
aI01
aI00
aI00
aI01
aI00
aI00
aI00
aI00
aa(lp25
I00
aI00
aI00
aI00
aI00
aI00
aI00
aI00
aI00
aI00
aI00
aI00
aI00
aI00
aI00
aI00
aI00
aI00
aa(lp26
I00
aI00
aI00
aI00
aI00
aI00
aI00
aI00
aI00
aI01
aI00
aI00
aI00
aI00
aI00
aI00
aI01
aI00
aa(lp27
I00
aI01
aI00
aI00
aI00
aI00
aI00
aI00
aI00
aI00
aI00
aI00
aI00
aI00
aI00
aI00
aI00
aI00
aa(lp28
I00
aI00
aI00
aI00
aI01
aI00
aI00
aI00
aI00
aI00
aI01
aI00
aI00
aI01
aI00
aI00
aI01
aI00
aa(lp29
I00
aI01
aI00
aI00
aI00
aI00
aI00
aI00
aI00
aI01
aI00
aI00
aI00
aI00
aI00
aI00
aI00
aI00
aa(lp30
I00
aI00
aI00
aI00
aI00
aI00
aI00
aI00
aI00
aI00
aI00
aI00
aI00
aI01
aI00
aI00
aI01
aI00
aa(lp31
I00
aI00
aI00
aI00
aI00
aI00
aI00
aI00
aI00
aI00
aI00
aI00
aI00
aI00
aI00
aI00
aI00
aI00
aa(lp32
I00
aI01
aI01
aI00
aI01
aI01
aI00
aI00
aI00
aI00
aI01
aI00
aI00
aI00
aI00
aI00
aI00
aI00
aa(lp33
I00
aI00
aI00
aI00
aI00
aI00
aI00
aI00
aI00
aI00
aI00
aI00
aI00
aI00
aI00
aI00
aI00
aI00
aa(lp34
I00
aI01
aI01
aI00
aI01
aI01
aI00
aI00
aI00
aI00
aI00
aI00
aI00
aI00
aI00
aI00
aI01
aI00
aa(lp35
I00
aI00
aI00
aI00
aI00
aI00
aI00
aI00
aI00
aI00
aI00
aI00
aI00
aI00
aI00
aI00
aI00
aI00
aa(lp36
I00
aI00
aI00
aI00
aI00
aI00
aI00
aI00
aI00
aI00
aI00
aI00
aI00
aI00
aI00
aI00
aI00
aI00
aa(lp37
I00
aI00
aI00
aI00
aI00
aI00
aI00
aI00
aI00
aI00
aI00
aI00
aI00
aI00
aI00
aI00
aI00
aI00
aa(lp38
I00
aI00
aI00
aI00
aI00
aI00
aI00
aI00
aI00
aI00
aI00
aI00
aI00
aI00
aI00
aI00
aI00
aI00
aa(lp39
I00
aI01
aI00
aI00
aI00
aI00
aI00
aI00
aI00
aI00
aI00
aI00
aI01
aI01
aI00
aI01
aI01
aI00
aa(lp40
I00
aI00
aI00
aI00
aI00
aI00
aI00
aI00
aI00
aI00
aI00
aI00
aI00
aI00
aI00
aI00
aI00
aI00
aa(lp41
I00
aI00
aI00
aI00
aI00
aI00
aI00
aI01
aI00
aI00
aI00
aI00
aI01
aI01
aI00
aI01
aI01
aI00
aa(lp42
I00
aI00
aI00
aI00
aI00
aI00
aI00
aI00
aI00
aI00
aI00
aI00
aI00
aI00
aI00
aI00
aI00
aI00
aa(lp43
I00
aI01
aI00
aI00
aI01
aI00
aI00
aI00
aI00
aI00
aI00
aI00
aI00
aI00
aI00
aI00
aI00
aI00
aa(lp44
I00
aI00
aI00
aI00
aI00
aI00
aI00
aI00
aI01
aI00
aI00
aI00
aI00
aI00
aI00
aI00
aI01
aI00
aa(lp45
I00
aI01
aI00
aI00
aI01
aI00
aI00
aI01
aI00
aI00
aI00
aI00
aI00
aI01
aI00
aI00
aI00
aI00
aa(lp46
I00
aI00
aI00
aI00
aI00
aI00
aI00
aI00
aI00
aI00
aI00
aI00
aI00
aI00
aI00
aI00
aI01
aI00
aa(lp47
I00
aI01
aI00
aI00
aI00
aI00
aI00
aI00
aI01
aI00
aI00
aI00
aI00
aI00
aI00
aI00
aI00
aI00
aa(lp48
I00
aI00
aI00
aI00
aI00
aI00
aI00
aI00
aI00
aI00
aI00
aI00
aI00
aI00
aI00
aI00
aI00
aI00
aa(lp49
I00
aI00
aI00
aI00
aI01
aI00
aI00
aI01
aI01
aI00
aI01
aI01
aI01
aI00
aI00
aI00
aI00
aI00
aa(lp50
I00
aI00
aI00
aI00
aI00
aI00
aI00
aI00
aI00
aI00
aI00
aI00
aI00
aI00
aI00
aI00
aI00
aI00
aa(lp51
I00
aI01
aI00
aI00
aI00
aI00
aI00
aI00
aI00
aI00
aI00
aI00
aI00
aI00
aI00
aI00
aI00
aI00
aa(lp52
I00
aI01
aI00
aI00
aI00
aI00
aI00
aI01
aI00
aI00
aI00
aI00
aI00
aI00
aI00
aI00
aI00
aI00
aa(lp53
I00
aI00
aI00
aI00
aI00
aI00
aI00
aI00
aI00
aI00
aI00
aI00
aI00
aI00
aI00
aI00
aI00
aI00
aasS'height'
p54
I18
sbsS'agentPositions'
p55
(lp56
(I00
(I1
I2
tp57
tp58
a(I00
(I32
I15
tp59
tp60
a(I00
(I1
I1
tp61
tp62
a(I00
(I32
I16
tp63
tp64
asg54
I18
sg17
I34
sS'walls'
p65
(igame
Grid
p66
(dp67
g16
I30
sg17
I34
sg18
(lp68
(lp69
I01
aI01
aI01
aI01
aI01
aI01
aI01
aI01
aI01
aI01
aI01
aI01
aI01
aI01
aI01
aI01
aI01
aI01
aa(lp70
I01
aI00
aI00
aI00
aI00
aI00
aI00
aI01
aI00
aI00
aI00
aI00
aI00
aI00
aI00
aI01
aI00
aI01
aa(lp71
I01
aI00
aI01
aI00
aI00
aI01
aI00
aI00
aI00
aI00
aI00
aI00
aI00
aI00
aI00
aI01
aI00
aI01
aa(lp72
I01
aI00
aI01
aI01
aI01
aI01
aI01
aI01
aI01
aI01
aI00
aI01
aI01
aI01
aI01
aI01
aI00
aI01
aa(lp73
I01
aI00
aI01
aI00
aI00
aI00
aI00
aI00
aI01
aI00
aI00
aI00
aI00
aI00
aI00
aI01
aI00
aI01
aa(lp74
I01
aI00
aI01
aI01
aI00
aI01
aI01
aI01
aI01
aI01
aI00
aI01
aI01
aI01
aI00
aI00
aI00
aI01
aa(lp75
I01
aI00
aI00
aI00
aI00
aI00
aI00
aI00
aI00
aI00
aI00
aI00
aI00
aI00
aI00
aI01
aI00
aI01
aa(lp76
I01
aI00
aI01
aI01
aI01
aI01
aI00
aI01
aI01
aI01
aI01
aI01
aI01
aI01
aI01
aI01
aI01
aI01
aa(lp77
I01
aI00
aI01
aI00
aI00
aI00
aI00
aI00
aI00
aI01
aI00
aI00
aI00
aI00
aI00
aI00
aI00
aI01
aa(lp78
I01
aI00
aI01
aI00
aI01
aI01
aI01
aI01
aI00
aI00
aI00
aI01
aI01
aI01
aI01
aI00
aI01
aI01
aa(lp79
I01
aI00
aI00
aI00
aI00
aI00
aI00
aI00
aI00
aI00
aI00
aI00
aI00
aI00
aI00
aI00
aI00
aI01
aa(lp80
I01
aI01
aI00
aI01
aI01
aI01
aI01
aI01
aI01
aI00
aI01
aI01
aI01
aI01
aI01
aI00
aI01
aI01
aa(lp81
I01
aI00
aI00
aI01
aI00
aI00
aI00
aI00
aI00
aI00
aI00
aI00
aI00
aI00
aI00
aI00
aI00
aI01
aa(lp82
I01
aI01
aI00
aI01
aI01
aI01
aI01
aI01
aI01
aI01
aI01
aI01
aI01
aI00
aI01
aI01
aI00
aI01
aa(lp83
I01
aI00
aI00
aI00
aI00
aI00
aI00
aI00
aI00
aI00
aI00
aI00
aI00
aI00
aI00
aI01
aI00
aI01
aa(lp84
I01
aI01
aI01
aI01
aI01
aI01
aI00
aI01
aI01
aI01
aI01
aI01
aI01
aI01
aI00
aI00
aI00
aI01
aa(lp85
I01
aI00
aI00
aI00
aI00
aI00
aI00
aI00
aI00
aI00
aI00
aI00
aI00
aI00
aI00
aI00
aI00
aI01
aa(lp86
I01
aI00
aI00
aI00
aI00
aI00
aI00
aI00
aI00
aI00
aI00
aI00
aI00
aI00
aI00
aI00
aI00
aI01
aa(lp87
I01
aI00
aI00
aI00
aI01
aI01
aI01
aI01
aI01
aI01
aI01
aI00
aI01
aI01
aI01
aI01
aI01
aI01
aa(lp88
I01
aI00
aI01
aI00
aI00
aI00
aI00
aI00
aI00
aI00
aI00
aI00
aI00
aI00
aI00
aI00
aI00
aI01
aa(lp89
I01
aI00
aI01
aI01
aI00
aI01
aI01
aI01
aI01
aI01
aI01
aI01
aI01
aI01
aI01
aI00
aI01
aI01
aa(lp90
I01
aI00
aI00
aI00
aI00
aI00
aI00
aI00
aI00
aI00
aI00
aI00
aI00
aI00
aI01
aI00
aI00
aI01
aa(lp91
I01
aI01
aI00
aI01
aI01
aI01
aI01
aI01
aI00
aI01
aI01
aI01
aI01
aI01
aI01
aI00
aI01
aI01
aa(lp92
I01
aI00
aI00
aI00
aI00
aI00
aI00
aI00
aI00
aI00
aI00
aI00
aI00
aI00
aI00
aI00
aI00
aI01
aa(lp93
I01
aI01
aI00
aI01
aI01
aI01
aI01
aI00
aI00
aI00
aI01
aI01
aI01
aI01
aI00
aI01
aI00
aI01
aa(lp94
I01
aI00
aI00
aI00
aI00
aI00
aI00
aI00
aI01
aI00
aI00
aI00
aI00
aI00
aI00
aI01
aI00
aI01
aa(lp95
I01
aI01
aI01
aI01
aI01
aI01
aI01
aI01
aI01
aI01
aI01
aI00
aI01
aI01
aI01
aI01
aI00
aI01
aa(lp96
I01
aI00
aI01
aI00
aI00
aI00
aI00
aI00
aI00
aI00
aI00
aI00
aI00
aI00
aI00
aI00
aI00
aI01
aa(lp97
I01
aI00
aI00
aI00
aI01
aI01
aI01
aI00
aI01
aI01
aI01
aI01
aI01
aI00
aI01
aI01
aI00
aI01
aa(lp98
I01
aI00
aI01
aI00
aI00
aI00
aI00
aI00
aI00
aI01
aI00
aI00
aI00
aI00
aI00
aI01
aI00
aI01
aa(lp99
I01
aI00
aI01
aI01
aI01
aI01
aI01
aI00
aI01
aI01
aI01
aI01
aI01
aI01
aI01
aI01
aI00
aI01
aa(lp100
I01
aI00
aI01
aI00
aI00
aI00
aI00
aI00
aI00
aI00
aI00
aI00
aI01
aI00
aI00
aI01
aI00
aI01
aa(lp101
I01
aI00
aI01
aI00
aI00
aI00
aI00
aI00
aI00
aI00
aI01
aI00
aI00
aI00
aI00
aI00
aI00
aI01
aa(lp102
I01
aI01
aI01
aI01
aI01
aI01
aI01
aI01
aI01
aI01
aI01
aI01
aI01
aI01
aI01
aI01
aI01
aI01
aasg54
I18
sbsS'totalFood'
p103
I60
sS'layoutText'
p104
(lp105
S'%%%%%%%%%%%%%%%%%%%%%%%%%%%%%%%%%%'
p106
aS'%..   .%.%.%  .   %.%.% . .     4%'
p107
aS'%%%%% %%     %%   %. .  %%% %%%%2%'
p108
aS'%  %   % % % %    % %%%   % % %  %'
p109
aS'%o %.% %.%.%   %  %.%.% %.%   %  %'
p110
aS'%  % % % % % % %  %.%.% % % %.%% %'
p111
aS'%  % % % % % % %    % %o%   %.%  %'
p112
aS'%.  .  %.  %.% %  % % % % % %.% %%'
p113
aS'%  %.%.%%.   % %  % % %   % %%%  %'
p114
aS'%  %%% %   % % %  % %   .%%.%.%  %'
p115
aS'%% %.% % % % % %  % %.%  .%  .  .%'
p116
aS'%  %.%   %o% %    % % % % % % %  %'
p117
aS'% %%.% % % %.%.%  % % % % % % %  %'
p118
aS'%  %   %.% %.%.%  %   %.%.% %.% o%'
p119
aS'%  % % %   %%% %    % % % %   %  %'
p120
aS'%1%%%% %%%  . .%   %%     %% %%%%%'
p121
aS'%3     . . %.%.%   .  %.%.%.   ..%'
p122
aS'%%%%%%%%%%%%%%%%%%%%%%%%%%%%%%%%%%'
p123
asbsS'blueTeamName'
p124
S'Confused_Pacman'
p125
sS'actions'
p126
(lp127
(I1
S'North'
p128
tp129
a(I2
S'East'
p130
tp131
a(I3
S'West'
p132
tp133
a(I0
S'South'
p134
tp135
a(I1
g132
tp136
a(I2
g130
tp137
a(I3
g132
tp138
a(I0
g130
tp139
a(I1
g132
tp140
a(I2
g130
tp141
a(I3
g132
tp142
a(I0
g130
tp143
a(I1
g132
tp144
a(I2
g130
tp145
a(I3
g132
tp146
a(I0
g130
tp147
a(I1
g132
tp148
a(I2
g130
tp149
a(I3
g132
tp150
a(I0
g130
tp151
a(I1
g132
tp152
a(I2
g130
tp153
a(I3
g132
tp154
a(I0
g130
tp155
a(I1
g132
tp156
a(I2
g130
tp157
a(I3
g132
tp158
a(I0
g130
tp159
a(I1
g132
tp160
a(I2
g130
tp161
a(I3
g132
tp162
a(I0
g130
tp163
a(I1
g132
tp164
a(I2
g130
tp165
a(I3
g132
tp166
a(I0
g130
tp167
a(I1
g132
tp168
a(I2
g128
tp169
a(I3
g134
tp170
a(I0
g130
tp171
a(I1
g134
tp172
a(I2
g130
tp173
a(I3
g132
tp174
a(I0
g128
tp175
a(I1
g132
tp176
a(I2
g130
tp177
a(I3
g132
tp178
a(I0
g130
tp179
a(I1
g132
tp180
a(I2
g130
tp181
a(I3
g132
tp182
a(I0
g130
tp183
a(I1
g132
tp184
a(I2
g130
tp185
a(I3
g132
tp186
a(I0
g130
tp187
a(I1
g132
tp188
a(I2
g128
tp189
a(I3
g134
tp190
a(I0
g130
tp191
a(I1
g134
tp192
a(I2
g128
tp193
a(I3
g134
tp194
a(I0
g128
tp195
a(I1
g134
tp196
a(I2
g128
tp197
a(I3
g134
tp198
a(I0
g128
tp199
a(I1
g134
tp200
a(I2
g128
tp201
a(I3
g134
tp202
a(I0
g128
tp203
a(I1
g134
tp204
a(I2
g130
tp205
a(I3
g132
tp206
a(I0
g128
tp207
a(I1
g132
tp208
a(I2
g130
tp209
a(I3
g132
tp210
a(I0
g130
tp211
a(I1
g132
tp212
a(I2
g128
tp213
a(I3
g128
tp214
a(I0
g130
tp215
a(I1
g134
tp216
a(I2
g128
tp217
a(I3
g128
tp218
a(I0
g134
tp219
a(I1
g134
tp220
a(I2
g134
tp221
a(I3
g128
tp222
a(I0
g130
tp223
a(I1
g134
tp224
a(I2
g134
tp225
a(I3
g132
tp226
a(I0
g134
tp227
a(I1
g134
tp228
a(I2
g134
tp229
a(I3
g132
tp230
a(I0
g132
tp231
a(I1
g134
tp232
a(I2
g134
tp233
a(I3
g132
tp234
a(I0
S'Stop'
p235
tp236
a(I1
g132
tp237
a(I2
g134
tp238
a(I3
g134
tp239
a(I0
g130
tp240
a(I1
g134
tp241
a(I2
g134
tp242
a(I3
g134
tp243
a(I0
g134
tp244
a(I1
g134
tp245
a(I2
g130
tp246
a(I3
g134
tp247
a(I0
g134
tp248
a(I1
g130
tp249
a(I2
g132
tp250
a(I3
g128
tp251
a(I0
g132
tp252
a(I1
g128
tp253
a(I2
g128
tp254
a(I3
g128
tp255
a(I0
g130
tp256
a(I1
g134
tp257
a(I2
g134
tp258
a(I3
g132
tp259
a(I0
g132
tp260
a(I1
g128
tp261
a(I2
g128
tp262
a(I3
g132
tp263
a(I0
g134
tp264
a(I1
g132
tp265
a(I2
g134
tp266
a(I3
g134
tp267
a(I0
g130
tp268
a(I1
g134
tp269
a(I2
g130
tp270
a(I3
g128
tp271
a(I0
g130
tp272
a(I1
g134
tp273
a(I2
g134
tp274
a(I3
g130
tp275
a(I0
g130
tp276
a(I1
g134
tp277
a(I2
g130
tp278
a(I3
g130
tp279
a(I0
g132
tp280
a(I1
g134
tp281
a(I2
g128
tp282
a(I3
g134
tp283
a(I0
g128
tp284
a(I1
g128
tp285
a(I2
g128
tp286
a(I3
g134
tp287
a(I0
g128
tp288
a(I1
g128
tp289
a(I2
g134
tp290
a(I3
g134
tp291
a(I0
g130
tp292
a(I1
g134
tp293
a(I2
g128
tp294
a(I3
g134
tp295
a(I0
g132
tp296
a(I1
g130
tp297
a(I2
g130
tp298
a(I3
g128
tp299
a(I0
g130
tp300
a(I1
g128
tp301
a(I2
g128
tp302
a(I3
g128
tp303
a(I0
g128
tp304
a(I1
g130
tp305
a(I2
g128
tp306
a(I3
g128
tp307
a(I0
g128
tp308
a(I1
g130
tp309
a(I2
g128
tp310
a(I3
g128
tp311
a(I0
g128
tp312
a(I1
g128
tp313
a(I2
g128
tp314
a(I3
g132
tp315
a(I0
g128
tp316
a(I1
g128
tp317
a(I2
g128
tp318
a(I3
g132
tp319
a(I0
g128
tp320
a(I1
g128
tp321
a(I2
g128
tp322
a(I3
g134
tp323
a(I0
g128
tp324
a(I1
g128
tp325
a(I2
g128
tp326
a(I3
g134
tp327
a(I0
g128
tp328
a(I1
g128
tp329
a(I2
g128
tp330
a(I3
g134
tp331
a(I0
g128
tp332
a(I1
g128
tp333
a(I2
g128
tp334
a(I3
g134
tp335
a(I0
g132
tp336
a(I1
g128
tp337
a(I2
g128
tp338
a(I3
g132
tp339
a(I0
g132
tp340
a(I1
g128
tp341
a(I2
g128
tp342
a(I3
g132
tp343
a(I0
g132
tp344
a(I1
g128
tp345
a(I2
g128
tp346
a(I3
g132
tp347
a(I0
g128
tp348
a(I1
g128
tp349
a(I2
g130
tp350
a(I3
g134
tp351
a(I0
g128
tp352
a(I1
g128
tp353
a(I2
g130
tp354
a(I3
g130
tp355
a(I0
g128
tp356
a(I1
g128
tp357
a(I2
g130
tp358
a(I3
g134
tp359
a(I0
g132
tp360
a(I1
g130
tp361
a(I2
g130
tp362
a(I3
g134
tp363
a(I0
g132
tp364
a(I1
g130
tp365
a(I2
g134
tp366
a(I3
g134
tp367
a(I0
g134
tp368
a(I1
g130
tp369
a(I2
g130
tp370
a(I3
g134
tp371
a(I0
g134
tp372
a(I1
g130
tp373
a(I2
g130
tp374
a(I3
g134
tp375
a(I0
g134
tp376
a(I1
g134
tp377
a(I2
g134
tp378
a(I3
g132
tp379
a(I0
g235
tp380
a(I1
g130
tp381
a(I2
g134
tp382
a(I3
g132
tp383
a(I0
g235
tp384
a(I1
g130
tp385
a(I2
g134
tp386
a(I3
g128
tp387
a(I0
g235
tp388
a(I1
g134
tp389
a(I2
g134
tp390
a(I3
g134
tp391
a(I0
g235
tp392
a(I1
g134
tp393
a(I2
g134
tp394
a(I3
g130
tp395
a(I0
g235
tp396
a(I1
g134
tp397
a(I2
g132
tp398
a(I3
g130
tp399
a(I0
g235
tp400
a(I1
g134
tp401
a(I2
g134
tp402
a(I3
g134
tp403
a(I0
g235
tp404
a(I1
g134
tp405
a(I2
g134
tp406
a(I3
g134
tp407
a(I0
g235
tp408
a(I1
g132
tp409
a(I2
g130
tp410
a(I3
g132
tp411
a(I0
g235
tp412
a(I1
g134
tp413
a(I2
g134
tp414
a(I3
g132
tp415
a(I0
g235
tp416
a(I1
g134
tp417
a(I2
g134
tp418
a(I3
g132
tp419
a(I0
g235
tp420
a(I1
g130
tp421
a(I2
g134
tp422
a(I3
g130
tp423
a(I0
g235
tp424
a(I1
g134
tp425
a(I2
g134
tp426
a(I3
g130
tp427
a(I0
g235
tp428
a(I1
g134
tp429
a(I2
g134
tp430
a(I3
g130
tp431
a(I0
g128
tp432
a(I1
g134
tp433
a(I2
g134
tp434
a(I3
g128
tp435
a(I0
g128
tp436
a(I1
g134
tp437
a(I2
g128
tp438
a(I3
g130
tp439
a(I0
g128
tp440
a(I1
g134
tp441
a(I2
g130
tp442
a(I3
g130
tp443
a(I0
g130
tp444
a(I1
g132
tp445
a(I2
g130
tp446
a(I3
g134
tp447
a(I0
g130
tp448
a(I1
g132
tp449
a(I2
g130
tp450
a(I3
g128
tp451
a(I0
g134
tp452
a(I1
g132
tp453
a(I2
g130
tp454
a(I3
g130
tp455
a(I0
g130
tp456
a(I1
g132
tp457
a(I2
g130
tp458
a(I3
g130
tp459
a(I0
g134
tp460
a(I1
g128
tp461
a(I2
g130
tp462
a(I3
g134
tp463
a(I0
g134
tp464
a(I1
g128
tp465
a(I2
g130
tp466
a(I3
g128
tp467
a(I0
g130
tp468
a(I1
g132
tp469
a(I2
g130
tp470
a(I3
g128
tp471
a(I0
g130
tp472
a(I1
g132
tp473
a(I2
g130
tp474
a(I3
g128
tp475
a(I0
g128
tp476
a(I1
g128
tp477
a(I2
g128
tp478
a(I3
g128
tp479
a(I0
g128
tp480
a(I1
g128
tp481
a(I2
g130
tp482
a(I3
g128
tp483
a(I0
g128
tp484
a(I1
g128
tp485
a(I2
g130
tp486
a(I3
g128
tp487
a(I0
g128
tp488
a(I1
g128
tp489
a(I2
g130
tp490
a(I3
g128
tp491
a(I0
g128
tp492
a(I1
g128
tp493
a(I2
g130
tp494
a(I3
g128
tp495
a(I0
g134
tp496
a(I1
g128
tp497
a(I2
g128
tp498
a(I3
g128
tp499
a(I0
g134
tp500
a(I1
g128
tp501
a(I2
g128
tp502
a(I3
g128
tp503
a(I0
g235
tp504
a(I1
g128
tp505
a(I2
g128
tp506
a(I3
g128
tp507
a(I0
g128
tp508
a(I1
g128
tp509
a(I2
g128
tp510
a(I3
g128
tp511
a(I0
g130
tp512
a(I1
g128
tp513
a(I2
g128
tp514
a(I3
g128
tp515
a(I0
g130
tp516
a(I1
g128
tp517
a(I2
g128
tp518
a(I3
g130
tp519
a(I0
g128
tp520
a(I1
g130
tp521
a(I2
g128
tp522
a(I3
g132
tp523
a(I0
g134
tp524
a(I1
g130
tp525
a(I2
g128
tp526
a(I3
g134
tp527
a(I0
g134
tp528
a(I1
g132
tp529
a(I2
g128
tp530
a(I3
g132
tp531
a(I0
g130
tp532
a(I1
g132
tp533
a(I2
g128
tp534
a(I3
g132
tp535
a(I0
g130
tp536
a(I1
g134
tp537
a(I2
g128
tp538
a(I3
g128
tp539
a(I0
g130
tp540
a(I1
g134
tp541
a(I2
g132
tp542
a(I3
g128
tp543
a(I0
g130
tp544
a(I1
g134
tp545
a(I2
g132
tp546
a(I3
g128
tp547
a(I0
g130
tp548
a(I1
g134
tp549
a(I2
g128
tp550
a(I3
g130
tp551
a(I0
g130
tp552
a(I1
g132
tp553
a(I2
g128
tp554
a(I3
g130
tp555
a(I0
g130
tp556
a(I1
g132
tp557
a(I2
g128
tp558
a(I3
g130
tp559
a(I0
g130
tp560
a(I1
g134
tp561
a(I2
g130
tp562
a(I3
g130
tp563
a(I0
g130
tp564
a(I1
g134
tp565
a(I2
g130
tp566
a(I3
g130
tp567
a(I0
g128
tp568
a(I1
g134
tp569
a(I2
g130
tp570
a(I3
g134
tp571
a(I0
g128
tp572
a(I1
g134
tp573
a(I2
g130
tp574
a(I3
g134
tp575
a(I0
g128
tp576
a(I1
g134
tp577
a(I2
g235
tp578
a(I3
g134
tp579
a(I0
g128
tp580
a(I1
g134
tp581
a(I2
g134
tp582
a(I3
g134
tp583
a(I0
g128
tp584
a(I1
g134
tp585
a(I2
g134
tp586
a(I3
g134
tp587
a(I0
g128
tp588
a(I1
g134
tp589
a(I2
g134
tp590
a(I3
g134
tp591
a(I0
g128
tp592
a(I1
g134
tp593
a(I2
g134
tp594
a(I3
g128
tp595
a(I0
g128
tp596
a(I1
g128
tp597
a(I2
g128
tp598
a(I3
g128
tp599
a(I0
g130
tp600
a(I1
g128
tp601
a(I2
g128
tp602
a(I3
g128
tp603
a(I0
g130
tp604
a(I1
g128
tp605
a(I2
g128
tp606
a(I3
g128
tp607
a(I0
g128
tp608
a(I1
g128
tp609
a(I2
g128
tp610
a(I3
g128
tp611
a(I0
g128
tp612
a(I1
g128
tp613
a(I2
g132
tp614
a(I3
g134
tp615
a(I0
g128
tp616
a(I1
g128
tp617
a(I2
g130
tp618
a(I3
g134
tp619
a(I0
g128
tp620
a(I1
g134
tp621
a(I2
g134
tp622
a(I3
g134
tp623
a(I0
g130
tp624
a(I1
g134
tp625
a(I2
g134
tp626
a(I3
g134
tp627
a(I0
g130
tp628
a(I1
g134
tp629
a(I2
g134
tp630
a(I3
g134
tp631
a(I0
g128
tp632
a(I1
g134
tp633
a(I2
g134
tp634
a(I3
g128
tp635
a(I0
g130
tp636
a(I1
g134
tp637
a(I2
g128
tp638
a(I3
g128
tp639
a(I0
g128
tp640
a(I1
g134
tp641
a(I2
g128
tp642
a(I3
g128
tp643
a(I0
g128
tp644
a(I1
g128
tp645
a(I2
g128
tp646
a(I3
g128
tp647
a(I0
g235
tp648
a(I1
g128
tp649
a(I2
g128
tp650
a(I3
g132
tp651
a(I0
g235
tp652
a(I1
g128
tp653
a(I2
g130
tp654
a(I3
g132
tp655
a(I0
g235
tp656
a(I1
g128
tp657
a(I2
g134
tp658
a(I3
g132
tp659
a(I0
g235
tp660
a(I1
g128
tp661
a(I2
g134
tp662
a(I3
g134
tp663
a(I0
g235
tp664
a(I1
g128
tp665
a(I2
g132
tp666
a(I3
g132
tp667
a(I0
g235
tp668
a(I1
g134
tp669
a(I2
g132
tp670
a(I3
g132
tp671
a(I0
g235
tp672
a(I1
g134
tp673
a(I2
g132
tp674
a(I3
g134
tp675
a(I0
g235
tp676
a(I1
g134
tp677
a(I2
g134
tp678
a(I3
g134
tp679
a(I0
g235
tp680
a(I1
g134
tp681
a(I2
g132
tp682
a(I3
g134
tp683
a(I0
g235
tp684
a(I1
g134
tp685
a(I2
g132
tp686
a(I3
g134
tp687
a(I0
g130
tp688
a(I1
g134
tp689
a(I2
g134
tp690
a(I3
g132
tp691
a(I0
g130
tp692
a(I1
g128
tp693
a(I2
g134
tp694
a(I3
g132
tp695
a(I0
g134
tp696
a(I1
g128
tp697
a(I2
g134
tp698
a(I3
g132
tp699
a(I0
g134
tp700
a(I1
g128
tp701
a(I2
g134
tp702
a(I3
g134
tp703
a(I0
g134
tp704
a(I1
g128
tp705
a(I2
g132
tp706
a(I3
g132
tp707
a(I0
g134
tp708
a(I1
g128
tp709
a(I2
g132
tp710
a(I3
g134
tp711
a(I0
g134
tp712
a(I1
g128
tp713
a(I2
g134
tp714
a(I3
g134
tp715
a(I0
g130
tp716
a(I1
g128
tp717
a(I2
g132
tp718
a(I3
g132
tp719
a(I0
g235
tp720
a(I1
g128
tp721
a(I2
g132
tp722
a(I3
g132
tp723
a(I0
g130
tp724
a(I1
g128
tp725
a(I2
g134
tp726
a(I3
g128
tp727
a(I0
g128
tp728
a(I1
g130
tp729
a(I2
g134
tp730
a(I3
g128
tp731
a(I0
g128
tp732
asS'length'
p733
I600
sS'agents'
p734
(lp735
(igame
Agent
p736
(dp737
S'index'
p738
I0
sba(igame
Agent
p739
(dp740
g738
I0
sba(igame
Agent
p741
(dp742
g738
I0
sba(igame
Agent
p743
(dp744
g738
I0
sbasS'redTeamName'
p745
S'PacStreetsPac'
p746
s.