(dp1
S'startingTeam'
p2
I1
sS'layout'
p3
(ilayout
Layout
p4
(dp5
S'capsules'
p6
(lp7
(I32
I4
tp8
a(I10
I6
tp9
a(I23
I11
tp10
a(I1
I13
tp11
asS'numGhosts'
p12
I4
sS'food'
p13
(igame
Grid
p14
(dp15
S'CELLS_PER_INT'
p16
I30
sS'width'
p17
I34
sS'data'
p18
(lp19
(lp20
I00
aI00
aI00
aI00
aI00
aI00
aI00
aI00
aI00
aI00
aI00
aI00
aI00
aI00
aI00
aI00
aI00
aI00
aa(lp21
I00
aI00
aI00
aI00
aI00
aI00
aI00
aI00
aI00
aI00
aI01
aI00
aI00
aI00
aI00
aI00
aI01
aI00
aa(lp22
I00
aI00
aI00
aI00
aI00
aI00
aI00
aI00
aI00
aI00
aI00
aI00
aI00
aI00
aI00
aI00
aI01
aI00
aa(lp23
I00
aI00
aI00
aI00
aI00
aI00
aI00
aI00
aI00
aI00
aI00
aI00
aI00
aI00
aI00
aI00
aI00
aI00
aa(lp24
I00
aI00
aI00
aI00
aI00
aI01
aI01
aI01
aI00
aI01
aI01
aI00
aI00
aI01
aI00
aI00
aI00
aI00
aa(lp25
I00
aI00
aI00
aI00
aI00
aI00
aI00
aI00
aI00
aI00
aI00
aI00
aI00
aI00
aI00
aI00
aI00
aI00
aa(lp26
I00
aI00
aI00
aI00
aI00
aI00
aI00
aI00
aI00
aI01
aI00
aI00
aI00
aI00
aI00
aI00
aI01
aI00
aa(lp27
I00
aI01
aI00
aI00
aI00
aI00
aI00
aI00
aI00
aI00
aI00
aI00
aI00
aI00
aI00
aI00
aI00
aI00
aa(lp28
I00
aI00
aI00
aI00
aI01
aI00
aI00
aI00
aI00
aI00
aI01
aI00
aI00
aI01
aI00
aI00
aI01
aI00
aa(lp29
I00
aI01
aI00
aI00
aI00
aI00
aI00
aI00
aI00
aI01
aI00
aI00
aI00
aI00
aI00
aI00
aI00
aI00
aa(lp30
I00
aI00
aI00
aI00
aI00
aI00
aI00
aI00
aI00
aI00
aI00
aI00
aI00
aI01
aI00
aI00
aI01
aI00
aa(lp31
I00
aI00
aI00
aI00
aI00
aI00
aI00
aI00
aI00
aI00
aI00
aI00
aI00
aI00
aI00
aI00
aI00
aI00
aa(lp32
I00
aI01
aI01
aI00
aI01
aI01
aI00
aI00
aI00
aI00
aI01
aI00
aI00
aI00
aI00
aI00
aI00
aI00
aa(lp33
I00
aI00
aI00
aI00
aI00
aI00
aI00
aI00
aI00
aI00
aI00
aI00
aI00
aI00
aI00
aI00
aI00
aI00
aa(lp34
I00
aI01
aI01
aI00
aI01
aI01
aI00
aI00
aI00
aI00
aI00
aI00
aI00
aI00
aI00
aI00
aI01
aI00
aa(lp35
I00
aI00
aI00
aI00
aI00
aI00
aI00
aI00
aI00
aI00
aI00
aI00
aI00
aI00
aI00
aI00
aI00
aI00
aa(lp36
I00
aI00
aI00
aI00
aI00
aI00
aI00
aI00
aI00
aI00
aI00
aI00
aI00
aI00
aI00
aI00
aI00
aI00
aa(lp37
I00
aI00
aI00
aI00
aI00
aI00
aI00
aI00
aI00
aI00
aI00
aI00
aI00
aI00
aI00
aI00
aI00
aI00
aa(lp38
I00
aI00
aI00
aI00
aI00
aI00
aI00
aI00
aI00
aI00
aI00
aI00
aI00
aI00
aI00
aI00
aI00
aI00
aa(lp39
I00
aI01
aI00
aI00
aI00
aI00
aI00
aI00
aI00
aI00
aI00
aI00
aI01
aI01
aI00
aI01
aI01
aI00
aa(lp40
I00
aI00
aI00
aI00
aI00
aI00
aI00
aI00
aI00
aI00
aI00
aI00
aI00
aI00
aI00
aI00
aI00
aI00
aa(lp41
I00
aI00
aI00
aI00
aI00
aI00
aI00
aI01
aI00
aI00
aI00
aI00
aI01
aI01
aI00
aI01
aI01
aI00
aa(lp42
I00
aI00
aI00
aI00
aI00
aI00
aI00
aI00
aI00
aI00
aI00
aI00
aI00
aI00
aI00
aI00
aI00
aI00
aa(lp43
I00
aI01
aI00
aI00
aI01
aI00
aI00
aI00
aI00
aI00
aI00
aI00
aI00
aI00
aI00
aI00
aI00
aI00
aa(lp44
I00
aI00
aI00
aI00
aI00
aI00
aI00
aI00
aI01
aI00
aI00
aI00
aI00
aI00
aI00
aI00
aI01
aI00
aa(lp45
I00
aI01
aI00
aI00
aI01
aI00
aI00
aI01
aI00
aI00
aI00
aI00
aI00
aI01
aI00
aI00
aI00
aI00
aa(lp46
I00
aI00
aI00
aI00
aI00
aI00
aI00
aI00
aI00
aI00
aI00
aI00
aI00
aI00
aI00
aI00
aI01
aI00
aa(lp47
I00
aI01
aI00
aI00
aI00
aI00
aI00
aI00
aI01
aI00
aI00
aI00
aI00
aI00
aI00
aI00
aI00
aI00
aa(lp48
I00
aI00
aI00
aI00
aI00
aI00
aI00
aI00
aI00
aI00
aI00
aI00
aI00
aI00
aI00
aI00
aI00
aI00
aa(lp49
I00
aI00
aI00
aI00
aI01
aI00
aI00
aI01
aI01
aI00
aI01
aI01
aI01
aI00
aI00
aI00
aI00
aI00
aa(lp50
I00
aI00
aI00
aI00
aI00
aI00
aI00
aI00
aI00
aI00
aI00
aI00
aI00
aI00
aI00
aI00
aI00
aI00
aa(lp51
I00
aI01
aI00
aI00
aI00
aI00
aI00
aI00
aI00
aI00
aI00
aI00
aI00
aI00
aI00
aI00
aI00
aI00
aa(lp52
I00
aI01
aI00
aI00
aI00
aI00
aI00
aI01
aI00
aI00
aI00
aI00
aI00
aI00
aI00
aI00
aI00
aI00
aa(lp53
I00
aI00
aI00
aI00
aI00
aI00
aI00
aI00
aI00
aI00
aI00
aI00
aI00
aI00
aI00
aI00
aI00
aI00
aasS'height'
p54
I18
sbsS'agentPositions'
p55
(lp56
(I00
(I1
I2
tp57
tp58
a(I00
(I32
I15
tp59
tp60
a(I00
(I1
I1
tp61
tp62
a(I00
(I32
I16
tp63
tp64
asg54
I18
sg17
I34
sS'walls'
p65
(igame
Grid
p66
(dp67
g16
I30
sg17
I34
sg18
(lp68
(lp69
I01
aI01
aI01
aI01
aI01
aI01
aI01
aI01
aI01
aI01
aI01
aI01
aI01
aI01
aI01
aI01
aI01
aI01
aa(lp70
I01
aI00
aI00
aI00
aI00
aI00
aI00
aI01
aI00
aI00
aI00
aI00
aI00
aI00
aI00
aI01
aI00
aI01
aa(lp71
I01
aI00
aI01
aI00
aI00
aI01
aI00
aI00
aI00
aI00
aI00
aI00
aI00
aI00
aI00
aI01
aI00
aI01
aa(lp72
I01
aI00
aI01
aI01
aI01
aI01
aI01
aI01
aI01
aI01
aI00
aI01
aI01
aI01
aI01
aI01
aI00
aI01
aa(lp73
I01
aI00
aI01
aI00
aI00
aI00
aI00
aI00
aI01
aI00
aI00
aI00
aI00
aI00
aI00
aI01
aI00
aI01
aa(lp74
I01
aI00
aI01
aI01
aI00
aI01
aI01
aI01
aI01
aI01
aI00
aI01
aI01
aI01
aI00
aI00
aI00
aI01
aa(lp75
I01
aI00
aI00
aI00
aI00
aI00
aI00
aI00
aI00
aI00
aI00
aI00
aI00
aI00
aI00
aI01
aI00
aI01
aa(lp76
I01
aI00
aI01
aI01
aI01
aI01
aI00
aI01
aI01
aI01
aI01
aI01
aI01
aI01
aI01
aI01
aI01
aI01
aa(lp77
I01
aI00
aI01
aI00
aI00
aI00
aI00
aI00
aI00
aI01
aI00
aI00
aI00
aI00
aI00
aI00
aI00
aI01
aa(lp78
I01
aI00
aI01
aI00
aI01
aI01
aI01
aI01
aI00
aI00
aI00
aI01
aI01
aI01
aI01
aI00
aI01
aI01
aa(lp79
I01
aI00
aI00
aI00
aI00
aI00
aI00
aI00
aI00
aI00
aI00
aI00
aI00
aI00
aI00
aI00
aI00
aI01
aa(lp80
I01
aI01
aI00
aI01
aI01
aI01
aI01
aI01
aI01
aI00
aI01
aI01
aI01
aI01
aI01
aI00
aI01
aI01
aa(lp81
I01
aI00
aI00
aI01
aI00
aI00
aI00
aI00
aI00
aI00
aI00
aI00
aI00
aI00
aI00
aI00
aI00
aI01
aa(lp82
I01
aI01
aI00
aI01
aI01
aI01
aI01
aI01
aI01
aI01
aI01
aI01
aI01
aI00
aI01
aI01
aI00
aI01
aa(lp83
I01
aI00
aI00
aI00
aI00
aI00
aI00
aI00
aI00
aI00
aI00
aI00
aI00
aI00
aI00
aI01
aI00
aI01
aa(lp84
I01
aI01
aI01
aI01
aI01
aI01
aI00
aI01
aI01
aI01
aI01
aI01
aI01
aI01
aI00
aI00
aI00
aI01
aa(lp85
I01
aI00
aI00
aI00
aI00
aI00
aI00
aI00
aI00
aI00
aI00
aI00
aI00
aI00
aI00
aI00
aI00
aI01
aa(lp86
I01
aI00
aI00
aI00
aI00
aI00
aI00
aI00
aI00
aI00
aI00
aI00
aI00
aI00
aI00
aI00
aI00
aI01
aa(lp87
I01
aI00
aI00
aI00
aI01
aI01
aI01
aI01
aI01
aI01
aI01
aI00
aI01
aI01
aI01
aI01
aI01
aI01
aa(lp88
I01
aI00
aI01
aI00
aI00
aI00
aI00
aI00
aI00
aI00
aI00
aI00
aI00
aI00
aI00
aI00
aI00
aI01
aa(lp89
I01
aI00
aI01
aI01
aI00
aI01
aI01
aI01
aI01
aI01
aI01
aI01
aI01
aI01
aI01
aI00
aI01
aI01
aa(lp90
I01
aI00
aI00
aI00
aI00
aI00
aI00
aI00
aI00
aI00
aI00
aI00
aI00
aI00
aI01
aI00
aI00
aI01
aa(lp91
I01
aI01
aI00
aI01
aI01
aI01
aI01
aI01
aI00
aI01
aI01
aI01
aI01
aI01
aI01
aI00
aI01
aI01
aa(lp92
I01
aI00
aI00
aI00
aI00
aI00
aI00
aI00
aI00
aI00
aI00
aI00
aI00
aI00
aI00
aI00
aI00
aI01
aa(lp93
I01
aI01
aI00
aI01
aI01
aI01
aI01
aI00
aI00
aI00
aI01
aI01
aI01
aI01
aI00
aI01
aI00
aI01
aa(lp94
I01
aI00
aI00
aI00
aI00
aI00
aI00
aI00
aI01
aI00
aI00
aI00
aI00
aI00
aI00
aI01
aI00
aI01
aa(lp95
I01
aI01
aI01
aI01
aI01
aI01
aI01
aI01
aI01
aI01
aI01
aI00
aI01
aI01
aI01
aI01
aI00
aI01
aa(lp96
I01
aI00
aI01
aI00
aI00
aI00
aI00
aI00
aI00
aI00
aI00
aI00
aI00
aI00
aI00
aI00
aI00
aI01
aa(lp97
I01
aI00
aI00
aI00
aI01
aI01
aI01
aI00
aI01
aI01
aI01
aI01
aI01
aI00
aI01
aI01
aI00
aI01
aa(lp98
I01
aI00
aI01
aI00
aI00
aI00
aI00
aI00
aI00
aI01
aI00
aI00
aI00
aI00
aI00
aI01
aI00
aI01
aa(lp99
I01
aI00
aI01
aI01
aI01
aI01
aI01
aI00
aI01
aI01
aI01
aI01
aI01
aI01
aI01
aI01
aI00
aI01
aa(lp100
I01
aI00
aI01
aI00
aI00
aI00
aI00
aI00
aI00
aI00
aI00
aI00
aI01
aI00
aI00
aI01
aI00
aI01
aa(lp101
I01
aI00
aI01
aI00
aI00
aI00
aI00
aI00
aI00
aI00
aI01
aI00
aI00
aI00
aI00
aI00
aI00
aI01
aa(lp102
I01
aI01
aI01
aI01
aI01
aI01
aI01
aI01
aI01
aI01
aI01
aI01
aI01
aI01
aI01
aI01
aI01
aI01
aasg54
I18
sbsS'totalFood'
p103
I60
sS'layoutText'
p104
(lp105
S'%%%%%%%%%%%%%%%%%%%%%%%%%%%%%%%%%%'
p106
aS'%..   .%.%.%  .   %.%.% . .     4%'
p107
aS'%%%%% %%     %%   %. .  %%% %%%%2%'
p108
aS'%  %   % % % %    % %%%   % % %  %'
p109
aS'%o %.% %.%.%   %  %.%.% %.%   %  %'
p110
aS'%  % % % % % % %  %.%.% % % %.%% %'
p111
aS'%  % % % % % % %    % %o%   %.%  %'
p112
aS'%.  .  %.  %.% %  % % % % % %.% %%'
p113
aS'%  %.%.%%.   % %  % % %   % %%%  %'
p114
aS'%  %%% %   % % %  % %   .%%.%.%  %'
p115
aS'%% %.% % % % % %  % %.%  .%  .  .%'
p116
aS'%  %.%   %o% %    % % % % % % %  %'
p117
aS'% %%.% % % %.%.%  % % % % % % %  %'
p118
aS'%  %   %.% %.%.%  %   %.%.% %.% o%'
p119
aS'%  % % %   %%% %    % % % %   %  %'
p120
aS'%1%%%% %%%  . .%   %%     %% %%%%%'
p121
aS'%3     . . %.%.%   .  %.%.%.   ..%'
p122
aS'%%%%%%%%%%%%%%%%%%%%%%%%%%%%%%%%%%'
p123
asbsS'blueTeamName'
p124
S'ImTired'
p125
sS'actions'
p126
(lp127
(I1
S'North'
p128
tp129
a(I2
S'East'
p130
tp131
a(I3
S'West'
p132
tp133
a(I0
S'South'
p134
tp135
a(I1
g132
tp136
a(I2
g130
tp137
a(I3
g132
tp138
a(I0
g130
tp139
a(I1
g132
tp140
a(I2
g130
tp141
a(I3
g132
tp142
a(I0
g130
tp143
a(I1
g132
tp144
a(I2
g130
tp145
a(I3
g132
tp146
a(I0
g130
tp147
a(I1
g132
tp148
a(I2
g130
tp149
a(I3
g132
tp150
a(I0
g130
tp151
a(I1
g132
tp152
a(I2
g130
tp153
a(I3
g132
tp154
a(I0
g130
tp155
a(I1
g132
tp156
a(I2
g130
tp157
a(I3
g132
tp158
a(I0
g130
tp159
a(I1
g132
tp160
a(I2
g130
tp161
a(I3
g132
tp162
a(I0
g130
tp163
a(I1
g132
tp164
a(I2
g130
tp165
a(I3
g132
tp166
a(I0
g130
tp167
a(I1
g132
tp168
a(I2
g128
tp169
a(I3
g134
tp170
a(I0
g130
tp171
a(I1
g134
tp172
a(I2
g130
tp173
a(I3
g132
tp174
a(I0
g128
tp175
a(I1
g132
tp176
a(I2
g130
tp177
a(I3
g132
tp178
a(I0
g130
tp179
a(I1
g132
tp180
a(I2
g130
tp181
a(I3
g132
tp182
a(I0
g130
tp183
a(I1
g132
tp184
a(I2
g130
tp185
a(I3
g132
tp186
a(I0
g130
tp187
a(I1
g132
tp188
a(I2
g128
tp189
a(I3
g134
tp190
a(I0
g130
tp191
a(I1
g134
tp192
a(I2
g128
tp193
a(I3
g134
tp194
a(I0
g128
tp195
a(I1
g134
tp196
a(I2
g128
tp197
a(I3
g134
tp198
a(I0
g128
tp199
a(I1
g134
tp200
a(I2
g128
tp201
a(I3
g134
tp202
a(I0
g128
tp203
a(I1
g134
tp204
a(I2
g130
tp205
a(I3
g134
tp206
a(I0
g128
tp207
a(I1
g132
tp208
a(I2
g130
tp209
a(I3
g134
tp210
a(I0
g130
tp211
a(I1
g132
tp212
a(I2
g128
tp213
a(I3
g128
tp214
a(I0
g130
tp215
a(I1
g128
tp216
a(I2
g128
tp217
a(I3
g134
tp218
a(I0
g134
tp219
a(I1
g132
tp220
a(I2
g128
tp221
a(I3
g134
tp222
a(I0
g130
tp223
a(I1
g128
tp224
a(I2
g128
tp225
a(I3
g128
tp226
a(I0
g134
tp227
a(I1
g128
tp228
a(I2
g128
tp229
a(I3
g128
tp230
a(I0
g134
tp231
a(I1
g132
tp232
a(I2
g128
tp233
a(I3
g128
tp234
a(I0
g134
tp235
a(I1
g128
tp236
a(I2
g128
tp237
a(I3
g132
tp238
a(I0
g130
tp239
a(I1
g128
tp240
a(I2
g128
tp241
a(I3
g130
tp242
a(I0
g134
tp243
a(I1
g130
tp244
a(I2
g130
tp245
a(I3
g132
tp246
a(I0
g130
tp247
a(I1
g132
tp248
a(I2
g128
tp249
a(I3
g130
tp250
a(I0
g132
tp251
a(I1
g130
tp252
a(I2
g134
tp253
a(I3
g132
tp254
a(I0
g132
tp255
a(I1
g132
tp256
a(I2
g132
tp257
a(I3
g132
tp258
a(I0
g132
tp259
a(I1
g130
tp260
a(I2
g130
tp261
a(I3
g132
tp262
a(I0
g130
tp263
a(I1
g132
tp264
a(I2
g134
tp265
a(I3
g130
tp266
a(I0
g130
tp267
a(I1
g132
tp268
a(I2
g128
tp269
a(I3
g130
tp270
a(I0
g130
tp271
a(I1
g130
tp272
a(I2
g128
tp273
a(I3
g130
tp274
a(I0
g130
tp275
a(I1
g130
tp276
a(I2
g134
tp277
a(I3
g128
tp278
a(I0
g130
tp279
a(I1
g132
tp280
a(I2
g128
tp281
a(I3
g128
tp282
a(I0
g128
tp283
a(I1
g130
tp284
a(I2
g134
tp285
a(I3
g128
tp286
a(I0
g130
tp287
a(I1
g132
tp288
a(I2
g128
tp289
a(I3
g128
tp290
a(I0
g130
tp291
a(I1
g130
tp292
a(I2
g134
tp293
a(I3
g130
tp294
a(I0
g134
tp295
a(I1
g132
tp296
a(I2
g128
tp297
a(I3
g132
tp298
a(I0
g128
tp299
a(I1
g130
tp300
a(I2
g134
tp301
a(I3
g130
tp302
a(I0
g132
tp303
a(I1
g132
tp304
a(I2
g128
tp305
a(I3
g132
tp306
a(I0
g132
tp307
a(I1
g130
tp308
a(I2
g134
tp309
a(I3
g134
tp310
a(I0
g134
tp311
a(I1
g132
tp312
a(I2
g128
tp313
a(I3
g134
tp314
a(I0
g132
tp315
a(I1
g130
tp316
a(I2
g134
tp317
a(I3
g134
tp318
a(I0
g132
tp319
a(I1
g132
tp320
a(I2
g128
tp321
a(I3
g134
tp322
a(I0
g132
tp323
a(I1
g130
tp324
a(I2
g134
tp325
a(I3
g132
tp326
a(I0
g128
tp327
a(I1
g132
tp328
a(I2
g128
tp329
a(I3
g130
tp330
a(I0
g128
tp331
a(I1
g130
tp332
a(I2
g134
tp333
a(I3
g128
tp334
a(I0
g132
tp335
a(I1
g132
tp336
a(I2
g128
tp337
a(I3
g134
tp338
a(I0
g128
tp339
a(I1
g130
tp340
a(I2
g134
tp341
a(I3
g132
tp342
a(I0
g132
tp343
a(I1
g132
tp344
a(I2
g128
tp345
a(I3
g132
tp346
a(I0
g130
tp347
a(I1
g130
tp348
a(I2
g134
tp349
a(I3
g130
tp350
a(I0
g134
tp351
a(I1
g132
tp352
a(I2
g132
tp353
a(I3
g130
tp354
a(I0
g130
tp355
a(I1
g130
tp356
a(I2
g130
tp357
a(I3
g128
tp358
a(I0
g130
tp359
a(I1
g132
tp360
a(I2
g132
tp361
a(I3
g128
tp362
a(I0
g128
tp363
a(I1
g130
tp364
a(I2
g134
tp365
a(I3
g128
tp366
a(I0
g130
tp367
a(I1
g132
tp368
a(I2
g128
tp369
a(I3
g128
tp370
a(I0
g130
tp371
a(I1
g130
tp372
a(I2
g134
tp373
a(I3
g130
tp374
a(I0
g128
tp375
a(I1
g132
tp376
a(I2
g128
tp377
a(I3
g130
tp378
a(I0
g128
tp379
a(I1
g130
tp380
a(I2
g134
tp381
a(I3
g130
tp382
a(I0
g128
tp383
a(I1
g132
tp384
a(I2
g128
tp385
a(I3
g130
tp386
a(I0
g134
tp387
a(I1
g130
tp388
a(I2
g134
tp389
a(I3
g132
tp390
a(I0
g134
tp391
a(I1
g132
tp392
a(I2
g128
tp393
a(I3
g132
tp394
a(I0
g134
tp395
a(I1
g130
tp396
a(I2
g130
tp397
a(I3
g132
tp398
a(I0
g132
tp399
a(I1
g132
tp400
a(I2
g128
tp401
a(I3
g132
tp402
a(I0
g132
tp403
a(I1
g130
tp404
a(I2
g134
tp405
a(I3
g134
tp406
a(I0
g134
tp407
a(I1
g132
tp408
a(I2
g128
tp409
a(I3
g134
tp410
a(I0
g132
tp411
a(I1
g130
tp412
a(I2
g134
tp413
a(I3
g134
tp414
a(I0
g132
tp415
a(I1
g132
tp416
a(I2
g128
tp417
a(I3
g134
tp418
a(I0
g128
tp419
a(I1
g130
tp420
a(I2
g134
tp421
a(I3
g132
tp422
a(I0
g132
tp423
a(I1
g132
tp424
a(I2
g128
tp425
a(I3
g132
tp426
a(I0
g130
tp427
a(I1
g130
tp428
a(I2
g134
tp429
a(I3
g130
tp430
a(I0
g134
tp431
a(I1
g132
tp432
a(I2
g132
tp433
a(I3
g130
tp434
a(I0
g130
tp435
a(I1
g130
tp436
a(I2
g130
tp437
a(I3
g128
tp438
a(I0
g134
tp439
a(I1
g132
tp440
a(I2
g128
tp441
a(I3
g134
tp442
a(I0
g134
tp443
a(I1
g130
tp444
a(I2
g134
tp445
a(I3
g132
tp446
a(I0
g130
tp447
a(I1
g132
tp448
a(I2
g132
tp449
a(I3
g130
tp450
a(I0
g130
tp451
a(I1
g130
tp452
a(I2
g134
tp453
a(I3
g128
tp454
a(I0
g130
tp455
a(I1
g132
tp456
a(I2
g128
tp457
a(I3
g128
tp458
a(I0
g128
tp459
a(I1
g130
tp460
a(I2
g134
tp461
a(I3
g128
tp462
a(I0
g130
tp463
a(I1
g132
tp464
a(I2
g128
tp465
a(I3
g128
tp466
a(I0
g130
tp467
a(I1
g130
tp468
a(I2
g130
tp469
a(I3
g130
tp470
a(I0
g128
tp471
a(I1
g132
tp472
a(I2
g132
tp473
a(I3
g130
tp474
a(I0
g128
tp475
a(I1
g130
tp476
a(I2
g130
tp477
a(I3
g130
tp478
a(I0
g134
tp479
a(I1
g132
tp480
a(I2
g128
tp481
a(I3
g132
tp482
a(I0
g134
tp483
a(I1
g130
tp484
a(I2
g134
tp485
a(I3
g132
tp486
a(I0
g132
tp487
a(I1
g132
tp488
a(I2
g128
tp489
a(I3
g132
tp490
a(I0
g132
tp491
a(I1
g130
tp492
a(I2
g134
tp493
a(I3
g134
tp494
a(I0
g134
tp495
a(I1
g132
tp496
a(I2
g128
tp497
a(I3
g134
tp498
a(I0
g132
tp499
a(I1
g130
tp500
a(I2
g134
tp501
a(I3
g134
tp502
a(I0
g132
tp503
a(I1
g132
tp504
a(I2
g128
tp505
a(I3
g134
tp506
a(I0
g132
tp507
a(I1
g130
tp508
a(I2
g134
tp509
a(I3
g132
tp510
a(I0
g132
tp511
a(I1
g132
tp512
a(I2
g128
tp513
a(I3
g132
tp514
a(I0
g132
tp515
a(I1
g130
tp516
a(I2
g134
tp517
a(I3
g132
tp518
a(I0
g130
tp519
a(I1
g132
tp520
a(I2
g132
tp521
a(I3
g130
tp522
a(I0
g130
tp523
a(I1
g130
tp524
a(I2
g134
tp525
a(I3
g130
tp526
a(I0
g130
tp527
a(I1
g132
tp528
a(I2
g128
tp529
a(I3
g130
tp530
a(I0
g130
tp531
a(I1
g130
tp532
a(I2
g130
tp533
a(I3
g128
tp534
a(I0
g130
tp535
a(I1
g132
tp536
a(I2
g128
tp537
a(I3
g128
tp538
a(I0
g128
tp539
a(I1
g130
tp540
a(I2
g134
tp541
a(I3
g128
tp542
a(I0
g130
tp543
a(I1
g132
tp544
a(I2
g128
tp545
a(I3
g128
tp546
a(I0
g130
tp547
a(I1
g130
tp548
a(I2
g134
tp549
a(I3
g130
tp550
a(I0
g130
tp551
a(I1
g132
tp552
a(I2
g128
tp553
a(I3
g132
tp554
a(I0
g130
tp555
a(I1
g130
tp556
a(I2
g134
tp557
a(I3
g130
tp558
a(I0
g134
tp559
a(I1
g132
tp560
a(I2
g128
tp561
a(I3
g132
tp562
a(I0
g128
tp563
a(I1
g130
tp564
a(I2
g134
tp565
a(I3
g130
tp566
a(I0
g132
tp567
a(I1
g132
tp568
a(I2
g132
tp569
a(I3
S'Stop'
p570
tp571
a(I0
g132
tp572
a(I1
g130
tp573
a(I2
g130
tp574
a(I3
g570
tp575
a(I0
g132
tp576
a(I1
g132
tp577
a(I2
g128
tp578
a(I3
g132
tp579
a(I0
g132
tp580
a(I1
g130
tp581
a(I2
g134
tp582
a(I3
g134
tp583
a(I0
g128
tp584
a(I1
g132
tp585
a(I2
g128
tp586
a(I3
g128
tp587
a(I0
g128
tp588
a(I1
g130
tp589
a(I2
g134
tp590
a(I3
g130
tp591
a(I0
g132
tp592
a(I1
g132
tp593
a(I2
g132
tp594
a(I3
g132
tp595
a(I0
g132
tp596
a(I1
g130
tp597
a(I2
g134
tp598
a(I3
g134
tp599
a(I0
g134
tp600
a(I1
g132
tp601
a(I2
g128
tp602
a(I3
g134
tp603
a(I0
g132
tp604
a(I1
g130
tp605
a(I2
g130
tp606
a(I3
g134
tp607
a(I0
g132
tp608
a(I1
g132
tp609
a(I2
g132
tp610
a(I3
g134
tp611
a(I0
g128
tp612
a(I1
g130
tp613
a(I2
g134
tp614
a(I3
g132
tp615
a(I0
g132
tp616
a(I1
g132
tp617
a(I2
g128
tp618
a(I3
g132
tp619
a(I0
g130
tp620
a(I1
g130
tp621
a(I2
g130
tp622
a(I3
g130
tp623
a(I0
g134
tp624
a(I1
g132
tp625
a(I2
g128
tp626
a(I3
g130
tp627
a(I0
g130
tp628
a(I1
g130
tp629
a(I2
g134
tp630
a(I3
g128
tp631
a(I0
g130
tp632
a(I1
g132
tp633
a(I2
g132
tp634
a(I3
g128
tp635
a(I0
g128
tp636
a(I1
g130
tp637
a(I2
g130
tp638
a(I3
g128
tp639
a(I0
g130
tp640
a(I1
g132
tp641
a(I2
g132
tp642
a(I3
g128
tp643
a(I0
g130
tp644
a(I1
g130
tp645
a(I2
g134
tp646
a(I3
g130
tp647
a(I0
g128
tp648
a(I1
g132
tp649
a(I2
g128
tp650
a(I3
g130
tp651
a(I0
g128
tp652
a(I1
g130
tp653
a(I2
g130
tp654
a(I3
g130
tp655
a(I0
g128
tp656
a(I1
g132
tp657
a(I2
g128
tp658
a(I3
g130
tp659
a(I0
g128
tp660
a(I1
g130
tp661
a(I2
g134
tp662
a(I3
g134
tp663
a(I0
g130
tp664
a(I1
g132
tp665
a(I2
g128
tp666
a(I3
g130
tp667
a(I0
g130
tp668
a(I1
g130
tp669
a(I2
g134
tp670
a(I3
g130
tp671
a(I0
g130
tp672
a(I1
g132
tp673
a(I2
g132
tp674
a(I3
g134
tp675
a(I0
g132
tp676
a(I1
g130
tp677
a(I2
g134
tp678
a(I3
g128
tp679
a(I0
g132
tp680
a(I1
g132
tp681
a(I2
g128
tp682
a(I3
g132
tp683
a(I0
g132
tp684
a(I1
g130
tp685
a(I2
g134
tp686
a(I3
g132
tp687
a(I0
g134
tp688
a(I1
g132
tp689
a(I2
g128
tp690
a(I3
g128
tp691
a(I0
g134
tp692
a(I1
g130
tp693
a(I2
g134
tp694
a(I3
g132
tp695
a(I0
g134
tp696
a(I1
g132
tp697
a(I2
g128
tp698
a(I3
g132
tp699
a(I0
g134
tp700
a(I1
g130
tp701
a(I2
g134
tp702
a(I3
g132
tp703
a(I0
g132
tp704
a(I1
g132
tp705
a(I2
g128
tp706
a(I3
g132
tp707
a(I0
g132
tp708
a(I1
g130
tp709
a(I2
g134
tp710
a(I3
g134
tp711
a(I0
g134
tp712
a(I1
g132
tp713
a(I2
g128
tp714
a(I3
g134
tp715
a(I0
g132
tp716
a(I1
g130
tp717
a(I2
g130
tp718
a(I3
g134
tp719
a(I0
g132
tp720
a(I1
g132
tp721
a(I2
g128
tp722
a(I3
g134
tp723
a(I0
g132
tp724
a(I1
g130
tp725
a(I2
g134
tp726
a(I3
g132
tp727
a(I0
g130
tp728
a(I1
g570
tp729
a(I2
g570
tp730
a(I3
g130
tp731
a(I0
g130
tp732
asS'length'
p733
I600
sS'agents'
p734
(lp735
(igame
Agent
p736
(dp737
S'index'
p738
I0
sba(igame
Agent
p739
(dp740
g738
I0
sba(igame
Agent
p741
(dp742
g738
I0
sba(igame
Agent
p743
(dp744
g738
I0
sbasS'redTeamName'
p745
S'PacStreetsPac'
p746
s.