(dp1
S'startingTeam'
p2
I1
sS'layout'
p3
(ilayout
Layout
p4
(dp5
S'capsules'
p6
(lp7
(I32
I4
tp8
a(I10
I6
tp9
a(I23
I11
tp10
a(I1
I13
tp11
asS'numGhosts'
p12
I4
sS'food'
p13
(igame
Grid
p14
(dp15
S'CELLS_PER_INT'
p16
I30
sS'width'
p17
I34
sS'data'
p18
(lp19
(lp20
I00
aI00
aI00
aI00
aI00
aI00
aI00
aI00
aI00
aI00
aI00
aI00
aI00
aI00
aI00
aI00
aI00
aI00
aa(lp21
I00
aI00
aI00
aI00
aI00
aI00
aI00
aI00
aI00
aI00
aI01
aI00
aI00
aI00
aI00
aI00
aI01
aI00
aa(lp22
I00
aI00
aI00
aI00
aI00
aI00
aI00
aI00
aI00
aI00
aI00
aI00
aI00
aI00
aI00
aI00
aI01
aI00
aa(lp23
I00
aI00
aI00
aI00
aI00
aI00
aI00
aI00
aI00
aI00
aI00
aI00
aI00
aI00
aI00
aI00
aI00
aI00
aa(lp24
I00
aI00
aI00
aI00
aI00
aI01
aI01
aI01
aI00
aI01
aI01
aI00
aI00
aI01
aI00
aI00
aI00
aI00
aa(lp25
I00
aI00
aI00
aI00
aI00
aI00
aI00
aI00
aI00
aI00
aI00
aI00
aI00
aI00
aI00
aI00
aI00
aI00
aa(lp26
I00
aI00
aI00
aI00
aI00
aI00
aI00
aI00
aI00
aI01
aI00
aI00
aI00
aI00
aI00
aI00
aI01
aI00
aa(lp27
I00
aI01
aI00
aI00
aI00
aI00
aI00
aI00
aI00
aI00
aI00
aI00
aI00
aI00
aI00
aI00
aI00
aI00
aa(lp28
I00
aI00
aI00
aI00
aI01
aI00
aI00
aI00
aI00
aI00
aI01
aI00
aI00
aI01
aI00
aI00
aI01
aI00
aa(lp29
I00
aI01
aI00
aI00
aI00
aI00
aI00
aI00
aI00
aI01
aI00
aI00
aI00
aI00
aI00
aI00
aI00
aI00
aa(lp30
I00
aI00
aI00
aI00
aI00
aI00
aI00
aI00
aI00
aI00
aI00
aI00
aI00
aI01
aI00
aI00
aI01
aI00
aa(lp31
I00
aI00
aI00
aI00
aI00
aI00
aI00
aI00
aI00
aI00
aI00
aI00
aI00
aI00
aI00
aI00
aI00
aI00
aa(lp32
I00
aI01
aI01
aI00
aI01
aI01
aI00
aI00
aI00
aI00
aI01
aI00
aI00
aI00
aI00
aI00
aI00
aI00
aa(lp33
I00
aI00
aI00
aI00
aI00
aI00
aI00
aI00
aI00
aI00
aI00
aI00
aI00
aI00
aI00
aI00
aI00
aI00
aa(lp34
I00
aI01
aI01
aI00
aI01
aI01
aI00
aI00
aI00
aI00
aI00
aI00
aI00
aI00
aI00
aI00
aI01
aI00
aa(lp35
I00
aI00
aI00
aI00
aI00
aI00
aI00
aI00
aI00
aI00
aI00
aI00
aI00
aI00
aI00
aI00
aI00
aI00
aa(lp36
I00
aI00
aI00
aI00
aI00
aI00
aI00
aI00
aI00
aI00
aI00
aI00
aI00
aI00
aI00
aI00
aI00
aI00
aa(lp37
I00
aI00
aI00
aI00
aI00
aI00
aI00
aI00
aI00
aI00
aI00
aI00
aI00
aI00
aI00
aI00
aI00
aI00
aa(lp38
I00
aI00
aI00
aI00
aI00
aI00
aI00
aI00
aI00
aI00
aI00
aI00
aI00
aI00
aI00
aI00
aI00
aI00
aa(lp39
I00
aI01
aI00
aI00
aI00
aI00
aI00
aI00
aI00
aI00
aI00
aI00
aI01
aI01
aI00
aI01
aI01
aI00
aa(lp40
I00
aI00
aI00
aI00
aI00
aI00
aI00
aI00
aI00
aI00
aI00
aI00
aI00
aI00
aI00
aI00
aI00
aI00
aa(lp41
I00
aI00
aI00
aI00
aI00
aI00
aI00
aI01
aI00
aI00
aI00
aI00
aI01
aI01
aI00
aI01
aI01
aI00
aa(lp42
I00
aI00
aI00
aI00
aI00
aI00
aI00
aI00
aI00
aI00
aI00
aI00
aI00
aI00
aI00
aI00
aI00
aI00
aa(lp43
I00
aI01
aI00
aI00
aI01
aI00
aI00
aI00
aI00
aI00
aI00
aI00
aI00
aI00
aI00
aI00
aI00
aI00
aa(lp44
I00
aI00
aI00
aI00
aI00
aI00
aI00
aI00
aI01
aI00
aI00
aI00
aI00
aI00
aI00
aI00
aI01
aI00
aa(lp45
I00
aI01
aI00
aI00
aI01
aI00
aI00
aI01
aI00
aI00
aI00
aI00
aI00
aI01
aI00
aI00
aI00
aI00
aa(lp46
I00
aI00
aI00
aI00
aI00
aI00
aI00
aI00
aI00
aI00
aI00
aI00
aI00
aI00
aI00
aI00
aI01
aI00
aa(lp47
I00
aI01
aI00
aI00
aI00
aI00
aI00
aI00
aI01
aI00
aI00
aI00
aI00
aI00
aI00
aI00
aI00
aI00
aa(lp48
I00
aI00
aI00
aI00
aI00
aI00
aI00
aI00
aI00
aI00
aI00
aI00
aI00
aI00
aI00
aI00
aI00
aI00
aa(lp49
I00
aI00
aI00
aI00
aI01
aI00
aI00
aI01
aI01
aI00
aI01
aI01
aI01
aI00
aI00
aI00
aI00
aI00
aa(lp50
I00
aI00
aI00
aI00
aI00
aI00
aI00
aI00
aI00
aI00
aI00
aI00
aI00
aI00
aI00
aI00
aI00
aI00
aa(lp51
I00
aI01
aI00
aI00
aI00
aI00
aI00
aI00
aI00
aI00
aI00
aI00
aI00
aI00
aI00
aI00
aI00
aI00
aa(lp52
I00
aI01
aI00
aI00
aI00
aI00
aI00
aI01
aI00
aI00
aI00
aI00
aI00
aI00
aI00
aI00
aI00
aI00
aa(lp53
I00
aI00
aI00
aI00
aI00
aI00
aI00
aI00
aI00
aI00
aI00
aI00
aI00
aI00
aI00
aI00
aI00
aI00
aasS'height'
p54
I18
sbsS'agentPositions'
p55
(lp56
(I00
(I1
I2
tp57
tp58
a(I00
(I32
I15
tp59
tp60
a(I00
(I1
I1
tp61
tp62
a(I00
(I32
I16
tp63
tp64
asg54
I18
sg17
I34
sS'walls'
p65
(igame
Grid
p66
(dp67
g16
I30
sg17
I34
sg18
(lp68
(lp69
I01
aI01
aI01
aI01
aI01
aI01
aI01
aI01
aI01
aI01
aI01
aI01
aI01
aI01
aI01
aI01
aI01
aI01
aa(lp70
I01
aI00
aI00
aI00
aI00
aI00
aI00
aI01
aI00
aI00
aI00
aI00
aI00
aI00
aI00
aI01
aI00
aI01
aa(lp71
I01
aI00
aI01
aI00
aI00
aI01
aI00
aI00
aI00
aI00
aI00
aI00
aI00
aI00
aI00
aI01
aI00
aI01
aa(lp72
I01
aI00
aI01
aI01
aI01
aI01
aI01
aI01
aI01
aI01
aI00
aI01
aI01
aI01
aI01
aI01
aI00
aI01
aa(lp73
I01
aI00
aI01
aI00
aI00
aI00
aI00
aI00
aI01
aI00
aI00
aI00
aI00
aI00
aI00
aI01
aI00
aI01
aa(lp74
I01
aI00
aI01
aI01
aI00
aI01
aI01
aI01
aI01
aI01
aI00
aI01
aI01
aI01
aI00
aI00
aI00
aI01
aa(lp75
I01
aI00
aI00
aI00
aI00
aI00
aI00
aI00
aI00
aI00
aI00
aI00
aI00
aI00
aI00
aI01
aI00
aI01
aa(lp76
I01
aI00
aI01
aI01
aI01
aI01
aI00
aI01
aI01
aI01
aI01
aI01
aI01
aI01
aI01
aI01
aI01
aI01
aa(lp77
I01
aI00
aI01
aI00
aI00
aI00
aI00
aI00
aI00
aI01
aI00
aI00
aI00
aI00
aI00
aI00
aI00
aI01
aa(lp78
I01
aI00
aI01
aI00
aI01
aI01
aI01
aI01
aI00
aI00
aI00
aI01
aI01
aI01
aI01
aI00
aI01
aI01
aa(lp79
I01
aI00
aI00
aI00
aI00
aI00
aI00
aI00
aI00
aI00
aI00
aI00
aI00
aI00
aI00
aI00
aI00
aI01
aa(lp80
I01
aI01
aI00
aI01
aI01
aI01
aI01
aI01
aI01
aI00
aI01
aI01
aI01
aI01
aI01
aI00
aI01
aI01
aa(lp81
I01
aI00
aI00
aI01
aI00
aI00
aI00
aI00
aI00
aI00
aI00
aI00
aI00
aI00
aI00
aI00
aI00
aI01
aa(lp82
I01
aI01
aI00
aI01
aI01
aI01
aI01
aI01
aI01
aI01
aI01
aI01
aI01
aI00
aI01
aI01
aI00
aI01
aa(lp83
I01
aI00
aI00
aI00
aI00
aI00
aI00
aI00
aI00
aI00
aI00
aI00
aI00
aI00
aI00
aI01
aI00
aI01
aa(lp84
I01
aI01
aI01
aI01
aI01
aI01
aI00
aI01
aI01
aI01
aI01
aI01
aI01
aI01
aI00
aI00
aI00
aI01
aa(lp85
I01
aI00
aI00
aI00
aI00
aI00
aI00
aI00
aI00
aI00
aI00
aI00
aI00
aI00
aI00
aI00
aI00
aI01
aa(lp86
I01
aI00
aI00
aI00
aI00
aI00
aI00
aI00
aI00
aI00
aI00
aI00
aI00
aI00
aI00
aI00
aI00
aI01
aa(lp87
I01
aI00
aI00
aI00
aI01
aI01
aI01
aI01
aI01
aI01
aI01
aI00
aI01
aI01
aI01
aI01
aI01
aI01
aa(lp88
I01
aI00
aI01
aI00
aI00
aI00
aI00
aI00
aI00
aI00
aI00
aI00
aI00
aI00
aI00
aI00
aI00
aI01
aa(lp89
I01
aI00
aI01
aI01
aI00
aI01
aI01
aI01
aI01
aI01
aI01
aI01
aI01
aI01
aI01
aI00
aI01
aI01
aa(lp90
I01
aI00
aI00
aI00
aI00
aI00
aI00
aI00
aI00
aI00
aI00
aI00
aI00
aI00
aI01
aI00
aI00
aI01
aa(lp91
I01
aI01
aI00
aI01
aI01
aI01
aI01
aI01
aI00
aI01
aI01
aI01
aI01
aI01
aI01
aI00
aI01
aI01
aa(lp92
I01
aI00
aI00
aI00
aI00
aI00
aI00
aI00
aI00
aI00
aI00
aI00
aI00
aI00
aI00
aI00
aI00
aI01
aa(lp93
I01
aI01
aI00
aI01
aI01
aI01
aI01
aI00
aI00
aI00
aI01
aI01
aI01
aI01
aI00
aI01
aI00
aI01
aa(lp94
I01
aI00
aI00
aI00
aI00
aI00
aI00
aI00
aI01
aI00
aI00
aI00
aI00
aI00
aI00
aI01
aI00
aI01
aa(lp95
I01
aI01
aI01
aI01
aI01
aI01
aI01
aI01
aI01
aI01
aI01
aI00
aI01
aI01
aI01
aI01
aI00
aI01
aa(lp96
I01
aI00
aI01
aI00
aI00
aI00
aI00
aI00
aI00
aI00
aI00
aI00
aI00
aI00
aI00
aI00
aI00
aI01
aa(lp97
I01
aI00
aI00
aI00
aI01
aI01
aI01
aI00
aI01
aI01
aI01
aI01
aI01
aI00
aI01
aI01
aI00
aI01
aa(lp98
I01
aI00
aI01
aI00
aI00
aI00
aI00
aI00
aI00
aI01
aI00
aI00
aI00
aI00
aI00
aI01
aI00
aI01
aa(lp99
I01
aI00
aI01
aI01
aI01
aI01
aI01
aI00
aI01
aI01
aI01
aI01
aI01
aI01
aI01
aI01
aI00
aI01
aa(lp100
I01
aI00
aI01
aI00
aI00
aI00
aI00
aI00
aI00
aI00
aI00
aI00
aI01
aI00
aI00
aI01
aI00
aI01
aa(lp101
I01
aI00
aI01
aI00
aI00
aI00
aI00
aI00
aI00
aI00
aI01
aI00
aI00
aI00
aI00
aI00
aI00
aI01
aa(lp102
I01
aI01
aI01
aI01
aI01
aI01
aI01
aI01
aI01
aI01
aI01
aI01
aI01
aI01
aI01
aI01
aI01
aI01
aasg54
I18
sbsS'totalFood'
p103
I60
sS'layoutText'
p104
(lp105
S'%%%%%%%%%%%%%%%%%%%%%%%%%%%%%%%%%%'
p106
aS'%..   .%.%.%  .   %.%.% . .     4%'
p107
aS'%%%%% %%     %%   %. .  %%% %%%%2%'
p108
aS'%  %   % % % %    % %%%   % % %  %'
p109
aS'%o %.% %.%.%   %  %.%.% %.%   %  %'
p110
aS'%  % % % % % % %  %.%.% % % %.%% %'
p111
aS'%  % % % % % % %    % %o%   %.%  %'
p112
aS'%.  .  %.  %.% %  % % % % % %.% %%'
p113
aS'%  %.%.%%.   % %  % % %   % %%%  %'
p114
aS'%  %%% %   % % %  % %   .%%.%.%  %'
p115
aS'%% %.% % % % % %  % %.%  .%  .  .%'
p116
aS'%  %.%   %o% %    % % % % % % %  %'
p117
aS'% %%.% % % %.%.%  % % % % % % %  %'
p118
aS'%  %   %.% %.%.%  %   %.%.% %.% o%'
p119
aS'%  % % %   %%% %    % % % %   %  %'
p120
aS'%1%%%% %%%  . .%   %%     %% %%%%%'
p121
aS'%3     . . %.%.%   .  %.%.%.   ..%'
p122
aS'%%%%%%%%%%%%%%%%%%%%%%%%%%%%%%%%%%'
p123
asbsS'blueTeamName'
p124
S'step_pac'
p125
sS'actions'
p126
(lp127
(I1
S'North'
p128
tp129
a(I2
S'East'
p130
tp131
a(I3
S'West'
p132
tp133
a(I0
S'South'
p134
tp135
a(I1
g132
tp136
a(I2
g130
tp137
a(I3
g132
tp138
a(I0
g130
tp139
a(I1
g132
tp140
a(I2
g130
tp141
a(I3
g132
tp142
a(I0
g130
tp143
a(I1
g132
tp144
a(I2
g130
tp145
a(I3
g132
tp146
a(I0
g130
tp147
a(I1
g132
tp148
a(I2
g130
tp149
a(I3
g132
tp150
a(I0
g130
tp151
a(I1
g132
tp152
a(I2
g130
tp153
a(I3
g132
tp154
a(I0
g130
tp155
a(I1
g132
tp156
a(I2
g130
tp157
a(I3
g132
tp158
a(I0
g130
tp159
a(I1
g132
tp160
a(I2
g130
tp161
a(I3
g132
tp162
a(I0
g130
tp163
a(I1
g132
tp164
a(I2
g130
tp165
a(I3
g132
tp166
a(I0
g130
tp167
a(I1
g132
tp168
a(I2
g128
tp169
a(I3
g134
tp170
a(I0
g130
tp171
a(I1
g134
tp172
a(I2
g128
tp173
a(I3
g132
tp174
a(I0
g128
tp175
a(I1
g132
tp176
a(I2
g128
tp177
a(I3
g132
tp178
a(I0
g130
tp179
a(I1
g132
tp180
a(I2
g128
tp181
a(I3
g132
tp182
a(I0
g130
tp183
a(I1
g132
tp184
a(I2
g128
tp185
a(I3
g132
tp186
a(I0
g130
tp187
a(I1
g132
tp188
a(I2
g128
tp189
a(I3
g134
tp190
a(I0
g130
tp191
a(I1
g128
tp192
a(I2
g128
tp193
a(I3
g134
tp194
a(I0
g128
tp195
a(I1
g134
tp196
a(I2
g128
tp197
a(I3
g134
tp198
a(I0
g128
tp199
a(I1
g130
tp200
a(I2
g130
tp201
a(I3
g134
tp202
a(I0
g128
tp203
a(I1
g130
tp204
a(I2
g130
tp205
a(I3
g132
tp206
a(I0
g128
tp207
a(I1
g130
tp208
a(I2
g128
tp209
a(I3
g132
tp210
a(I0
g130
tp211
a(I1
g130
tp212
a(I2
g128
tp213
a(I3
g132
tp214
a(I0
g130
tp215
a(I1
g128
tp216
a(I2
g128
tp217
a(I3
g134
tp218
a(I0
g130
tp219
a(I1
g134
tp220
a(I2
g128
tp221
a(I3
g134
tp222
a(I0
g134
tp223
a(I1
g132
tp224
a(I2
g130
tp225
a(I3
g134
tp226
a(I0
g134
tp227
a(I1
g132
tp228
a(I2
g130
tp229
a(I3
g134
tp230
a(I0
g134
tp231
a(I1
g132
tp232
a(I2
g134
tp233
a(I3
g134
tp234
a(I0
g130
tp235
a(I1
g132
tp236
a(I2
g134
tp237
a(I3
g132
tp238
a(I0
g134
tp239
a(I1
g134
tp240
a(I2
g134
tp241
a(I3
g132
tp242
a(I0
g134
tp243
a(I1
g134
tp244
a(I2
g134
tp245
a(I3
g134
tp246
a(I0
g130
tp247
a(I1
g134
tp248
a(I2
g134
tp249
a(I3
g134
tp250
a(I0
g132
tp251
a(I1
g134
tp252
a(I2
g134
tp253
a(I3
g134
tp254
a(I0
g132
tp255
a(I1
g132
tp256
a(I2
g134
tp257
a(I3
g134
tp258
a(I0
g128
tp259
a(I1
g132
tp260
a(I2
g134
tp261
asS'length'
p262
I600
sS'agents'
p263
(lp264
(igame
Agent
p265
(dp266
S'index'
p267
I0
sba(igame
Agent
p268
(dp269
g267
I0
sba(igame
Agent
p270
(dp271
g267
I0
sba(igame
Agent
p272
(dp273
g267
I0
sbasS'redTeamName'
p274
S'PacStreetsPac'
p275
s.