(dp1
S'startingTeam'
p2
I1
sS'layout'
p3
(ilayout
Layout
p4
(dp5
S'capsules'
p6
(lp7
(I14
I5
tp8
a(I23
I6
tp9
a(I10
I11
tp10
a(I19
I12
tp11
asS'numGhosts'
p12
I4
sS'food'
p13
(igame
Grid
p14
(dp15
S'CELLS_PER_INT'
p16
I30
sS'width'
p17
I34
sS'data'
p18
(lp19
(lp20
I00
aI00
aI00
aI00
aI00
aI00
aI00
aI00
aI00
aI00
aI00
aI00
aI00
aI00
aI00
aI00
aI00
aI00
aa(lp21
I00
aI00
aI00
aI00
aI00
aI00
aI00
aI00
aI00
aI00
aI00
aI00
aI00
aI00
aI00
aI00
aI00
aI00
aa(lp22
I00
aI00
aI00
aI00
aI00
aI00
aI00
aI00
aI00
aI00
aI00
aI00
aI00
aI00
aI00
aI00
aI00
aI00
aa(lp23
I00
aI00
aI00
aI00
aI00
aI00
aI00
aI00
aI00
aI00
aI00
aI00
aI00
aI00
aI00
aI00
aI00
aI00
aa(lp24
I00
aI00
aI00
aI00
aI00
aI00
aI00
aI00
aI00
aI00
aI00
aI00
aI00
aI00
aI00
aI00
aI00
aI00
aa(lp25
I00
aI00
aI00
aI00
aI00
aI00
aI00
aI00
aI00
aI00
aI00
aI00
aI00
aI00
aI00
aI00
aI00
aI00
aa(lp26
I00
aI00
aI00
aI00
aI00
aI00
aI00
aI00
aI00
aI00
aI00
aI00
aI00
aI00
aI00
aI00
aI00
aI00
aa(lp27
I00
aI01
aI01
aI00
aI01
aI01
aI00
aI01
aI00
aI00
aI01
aI00
aI00
aI00
aI00
aI00
aI01
aI00
aa(lp28
I00
aI00
aI00
aI00
aI00
aI00
aI00
aI00
aI00
aI00
aI01
aI01
aI00
aI00
aI01
aI00
aI01
aI00
aa(lp29
I00
aI00
aI00
aI00
aI01
aI00
aI00
aI00
aI01
aI00
aI00
aI00
aI00
aI00
aI00
aI00
aI00
aI00
aa(lp30
I00
aI00
aI00
aI00
aI00
aI01
aI00
aI00
aI00
aI01
aI00
aI00
aI00
aI00
aI00
aI01
aI01
aI00
aa(lp31
I00
aI00
aI00
aI00
aI01
aI00
aI00
aI00
aI00
aI00
aI00
aI00
aI00
aI00
aI00
aI00
aI00
aI00
aa(lp32
I00
aI00
aI01
aI01
aI01
aI00
aI00
aI00
aI00
aI00
aI00
aI00
aI00
aI00
aI00
aI01
aI01
aI00
aa(lp33
I00
aI00
aI00
aI00
aI00
aI00
aI00
aI00
aI00
aI00
aI00
aI00
aI00
aI00
aI00
aI00
aI00
aI00
aa(lp34
I00
aI00
aI01
aI00
aI00
aI00
aI00
aI00
aI01
aI00
aI01
aI00
aI01
aI01
aI00
aI01
aI01
aI00
aa(lp35
I00
aI00
aI00
aI00
aI00
aI00
aI00
aI00
aI00
aI00
aI00
aI00
aI00
aI00
aI00
aI00
aI00
aI00
aa(lp36
I00
aI00
aI00
aI00
aI00
aI00
aI00
aI00
aI00
aI00
aI00
aI00
aI00
aI00
aI00
aI00
aI00
aI00
aa(lp37
I00
aI00
aI00
aI00
aI00
aI00
aI00
aI00
aI00
aI00
aI00
aI00
aI00
aI00
aI00
aI00
aI00
aI00
aa(lp38
I00
aI00
aI00
aI00
aI00
aI00
aI00
aI00
aI00
aI00
aI00
aI00
aI00
aI00
aI00
aI00
aI00
aI00
aa(lp39
I00
aI01
aI01
aI00
aI01
aI01
aI00
aI01
aI00
aI01
aI00
aI00
aI00
aI00
aI00
aI01
aI00
aI00
aa(lp40
I00
aI00
aI00
aI00
aI00
aI00
aI00
aI00
aI00
aI00
aI00
aI00
aI00
aI00
aI00
aI00
aI00
aI00
aa(lp41
I00
aI01
aI01
aI00
aI00
aI00
aI00
aI00
aI00
aI00
aI00
aI00
aI00
aI01
aI01
aI01
aI00
aI00
aa(lp42
I00
aI00
aI00
aI00
aI00
aI00
aI00
aI00
aI00
aI00
aI00
aI00
aI00
aI01
aI00
aI00
aI00
aI00
aa(lp43
I00
aI01
aI01
aI00
aI00
aI00
aI00
aI00
aI01
aI00
aI00
aI00
aI01
aI00
aI00
aI00
aI00
aI00
aa(lp44
I00
aI00
aI00
aI00
aI00
aI00
aI00
aI00
aI00
aI01
aI00
aI00
aI00
aI01
aI00
aI00
aI00
aI00
aa(lp45
I00
aI01
aI00
aI01
aI00
aI00
aI01
aI01
aI00
aI00
aI00
aI00
aI00
aI00
aI00
aI00
aI00
aI00
aa(lp46
I00
aI01
aI00
aI00
aI00
aI00
aI00
aI01
aI00
aI00
aI01
aI00
aI01
aI01
aI00
aI01
aI01
aI00
aa(lp47
I00
aI00
aI00
aI00
aI00
aI00
aI00
aI00
aI00
aI00
aI00
aI00
aI00
aI00
aI00
aI00
aI00
aI00
aa(lp48
I00
aI00
aI00
aI00
aI00
aI00
aI00
aI00
aI00
aI00
aI00
aI00
aI00
aI00
aI00
aI00
aI00
aI00
aa(lp49
I00
aI00
aI00
aI00
aI00
aI00
aI00
aI00
aI00
aI00
aI00
aI00
aI00
aI00
aI00
aI00
aI00
aI00
aa(lp50
I00
aI00
aI00
aI00
aI00
aI00
aI00
aI00
aI00
aI00
aI00
aI00
aI00
aI00
aI00
aI00
aI00
aI00
aa(lp51
I00
aI00
aI00
aI00
aI00
aI00
aI00
aI00
aI00
aI00
aI00
aI00
aI00
aI00
aI00
aI00
aI00
aI00
aa(lp52
I00
aI00
aI00
aI00
aI00
aI00
aI00
aI00
aI00
aI00
aI00
aI00
aI00
aI00
aI00
aI00
aI00
aI00
aa(lp53
I00
aI00
aI00
aI00
aI00
aI00
aI00
aI00
aI00
aI00
aI00
aI00
aI00
aI00
aI00
aI00
aI00
aI00
aasS'height'
p54
I18
sbsS'agentPositions'
p55
(lp56
(I00
(I1
I2
tp57
tp58
a(I00
(I32
I15
tp59
tp60
a(I00
(I1
I1
tp61
tp62
a(I00
(I32
I16
tp63
tp64
asg54
I18
sg17
I34
sS'walls'
p65
(igame
Grid
p66
(dp67
g16
I30
sg17
I34
sg18
(lp68
(lp69
I01
aI01
aI01
aI01
aI01
aI01
aI01
aI01
aI01
aI01
aI01
aI01
aI01
aI01
aI01
aI01
aI01
aI01
aa(lp70
I01
aI00
aI00
aI00
aI00
aI00
aI00
aI00
aI00
aI00
aI00
aI00
aI00
aI00
aI00
aI00
aI00
aI01
aa(lp71
I01
aI01
aI01
aI01
aI01
aI01
aI01
aI01
aI01
aI01
aI01
aI01
aI01
aI01
aI01
aI01
aI00
aI01
aa(lp72
I01
aI00
aI00
aI00
aI00
aI00
aI00
aI00
aI00
aI00
aI00
aI00
aI00
aI00
aI00
aI00
aI00
aI01
aa(lp73
I01
aI00
aI01
aI01
aI01
aI01
aI01
aI01
aI01
aI01
aI01
aI01
aI01
aI01
aI01
aI01
aI01
aI01
aa(lp74
I01
aI00
aI00
aI00
aI00
aI00
aI00
aI00
aI00
aI00
aI00
aI00
aI00
aI00
aI00
aI00
aI00
aI01
aa(lp75
I01
aI01
aI01
aI01
aI01
aI01
aI01
aI01
aI01
aI01
aI01
aI01
aI01
aI01
aI01
aI01
aI00
aI01
aa(lp76
I01
aI00
aI00
aI01
aI00
aI00
aI00
aI00
aI00
aI01
aI00
aI01
aI00
aI00
aI00
aI00
aI00
aI01
aa(lp77
I01
aI00
aI01
aI01
aI01
aI01
aI01
aI01
aI00
aI01
aI00
aI00
aI00
aI01
aI00
aI01
aI00
aI01
aa(lp78
I01
aI00
aI00
aI01
aI00
aI01
aI00
aI00
aI00
aI01
aI01
aI01
aI00
aI01
aI01
aI01
aI01
aI01
aa(lp79
I01
aI01
aI00
aI01
aI00
aI00
aI00
aI01
aI00
aI00
aI00
aI00
aI00
aI00
aI00
aI00
aI00
aI01
aa(lp80
I01
aI00
aI00
aI01
aI00
aI01
aI01
aI01
aI01
aI01
aI01
aI01
aI01
aI01
aI01
aI01
aI01
aI01
aa(lp81
I01
aI00
aI00
aI00
aI00
aI00
aI00
aI00
aI00
aI00
aI00
aI00
aI00
aI00
aI00
aI00
aI00
aI01
aa(lp82
I01
aI01
aI00
aI01
aI01
aI00
aI01
aI01
aI01
aI01
aI01
aI01
aI01
aI01
aI01
aI00
aI01
aI01
aa(lp83
I01
aI00
aI00
aI00
aI00
aI00
aI00
aI00
aI00
aI00
aI00
aI01
aI00
aI00
aI00
aI00
aI00
aI01
aa(lp84
I01
aI00
aI01
aI00
aI01
aI01
aI01
aI01
aI01
aI00
aI01
aI01
aI01
aI01
aI01
aI01
aI01
aI01
aa(lp85
I01
aI00
aI00
aI00
aI00
aI00
aI00
aI00
aI00
aI00
aI00
aI00
aI00
aI00
aI00
aI00
aI00
aI01
aa(lp86
I01
aI00
aI00
aI00
aI00
aI00
aI00
aI00
aI00
aI00
aI00
aI00
aI00
aI00
aI00
aI00
aI00
aI01
aa(lp87
I01
aI01
aI01
aI01
aI01
aI01
aI01
aI01
aI00
aI01
aI01
aI01
aI01
aI01
aI00
aI01
aI00
aI01
aa(lp88
I01
aI00
aI00
aI00
aI00
aI00
aI01
aI00
aI00
aI00
aI00
aI00
aI00
aI00
aI00
aI00
aI00
aI01
aa(lp89
I01
aI01
aI00
aI01
aI01
aI01
aI01
aI01
aI01
aI01
aI01
aI01
aI00
aI01
aI01
aI00
aI01
aI01
aa(lp90
I01
aI00
aI00
aI00
aI00
aI00
aI00
aI00
aI00
aI00
aI00
aI00
aI00
aI00
aI00
aI00
aI00
aI01
aa(lp91
I01
aI01
aI01
aI01
aI01
aI01
aI01
aI01
aI01
aI01
aI01
aI01
aI01
aI00
aI01
aI00
aI00
aI01
aa(lp92
I01
aI00
aI00
aI00
aI00
aI00
aI00
aI00
aI00
aI00
aI01
aI00
aI00
aI00
aI01
aI00
aI01
aI01
aa(lp93
I01
aI01
aI01
aI01
aI01
aI00
aI01
aI01
aI01
aI00
aI00
aI00
aI01
aI00
aI01
aI00
aI00
aI01
aa(lp94
I01
aI00
aI01
aI00
aI01
aI00
aI00
aI00
aI01
aI00
aI01
aI01
aI01
aI01
aI01
aI01
aI00
aI01
aa(lp95
I01
aI00
aI00
aI00
aI00
aI00
aI01
aI00
aI01
aI00
aI00
aI00
aI00
aI00
aI01
aI00
aI00
aI01
aa(lp96
I01
aI00
aI01
aI01
aI01
aI01
aI01
aI01
aI01
aI01
aI01
aI01
aI01
aI01
aI01
aI01
aI01
aI01
aa(lp97
I01
aI00
aI00
aI00
aI00
aI00
aI00
aI00
aI00
aI00
aI00
aI00
aI00
aI00
aI00
aI00
aI00
aI01
aa(lp98
I01
aI01
aI01
aI01
aI01
aI01
aI01
aI01
aI01
aI01
aI01
aI01
aI01
aI01
aI01
aI01
aI00
aI01
aa(lp99
I01
aI00
aI00
aI00
aI00
aI00
aI00
aI00
aI00
aI00
aI00
aI00
aI00
aI00
aI00
aI00
aI00
aI01
aa(lp100
I01
aI00
aI01
aI01
aI01
aI01
aI01
aI01
aI01
aI01
aI01
aI01
aI01
aI01
aI01
aI01
aI01
aI01
aa(lp101
I01
aI00
aI00
aI00
aI00
aI00
aI00
aI00
aI00
aI00
aI00
aI00
aI00
aI00
aI00
aI00
aI00
aI01
aa(lp102
I01
aI01
aI01
aI01
aI01
aI01
aI01
aI01
aI01
aI01
aI01
aI01
aI01
aI01
aI01
aI01
aI01
aI01
aasg54
I18
sbsS'totalFood'
p103
I60
sS'layoutText'
p104
(lp105
S'%%%%%%%%%%%%%%%%%%%%%%%%%%%%%%%%%%'
p106
aS'%   %  ..%.%.%.%    %  %  .%   %4%'
p107
aS'% % % % %%.%. .%  %. .   %.% % %2%'
p108
aS'% % % % .% % % %    %.%%%%%% % % %'
p109
aS'% % % % %% % %.%  % %.. .%.% % % %'
p110
aS'% % % %    % %.%  %o  %.%%.% % % %'
p111
aS'% % % %%.%o% %%%  % % %  % % % % %'
p112
aS'% % % %..% % %.%  % % %% %.% % % %'
p113
aS'% % % %%%%.% %    %.% % .  % % % %'
p114
aS'% % % %  . % %.%    % %.%%%% % % %'
p115
aS'% % % %.% %% % %  %.% % %..% % % %'
p116
aS'% % % % %  % % %  %%% %o%.%% % % %'
p117
aS'% % % %.%%.%  o%  %.% %    % % % %'
p118
aS'% % % %.%. ..% %  %.% % %% % % % %'
p119
aS'% % % %%%%%%.%    % % % %. % % % %'
p120
aS'%1% % %.%   . .%  %. .%.%% % % % %'
p121
aS'%3%   %.  %  %    %.%.%.%..  %   %'
p122
aS'%%%%%%%%%%%%%%%%%%%%%%%%%%%%%%%%%%'
p123
asbsS'blueTeamName'
p124
S'step_pac'
p125
sS'actions'
p126
(lp127
(I1
S'North'
p128
tp129
a(I2
g128
tp130
a(I3
S'South'
p131
tp132
a(I0
g128
tp133
a(I1
g131
tp134
a(I2
g128
tp135
a(I3
g131
tp136
a(I0
g128
tp137
a(I1
g131
tp138
a(I2
g128
tp139
a(I3
g131
tp140
a(I0
g128
tp141
a(I1
g131
tp142
a(I2
g128
tp143
a(I3
g131
tp144
a(I0
g128
tp145
a(I1
g131
tp146
a(I2
g128
tp147
a(I3
g131
tp148
a(I0
g128
tp149
a(I1
g131
tp150
a(I2
g128
tp151
a(I3
g131
tp152
a(I0
g128
tp153
a(I1
g131
tp154
a(I2
g128
tp155
a(I3
g131
tp156
a(I0
g128
tp157
a(I1
g131
tp158
a(I2
g128
tp159
a(I3
g131
tp160
a(I0
g128
tp161
a(I1
g131
tp162
a(I2
g128
tp163
a(I3
g131
tp164
a(I0
g128
tp165
a(I1
g131
tp166
a(I2
g128
tp167
a(I3
g131
tp168
a(I0
g128
tp169
a(I1
g131
tp170
a(I2
g128
tp171
a(I3
g131
tp172
a(I0
g128
tp173
a(I1
g131
tp174
a(I2
g128
tp175
a(I3
g131
tp176
a(I0
g128
tp177
a(I1
g131
tp178
a(I2
g128
tp179
a(I3
g131
tp180
a(I0
g128
tp181
a(I1
g131
tp182
a(I2
g128
tp183
a(I3
g131
tp184
a(I0
g128
tp185
a(I1
g131
tp186
a(I2
g128
tp187
a(I3
g131
tp188
a(I0
S'East'
p189
tp190
a(I1
g131
tp191
a(I2
g189
tp192
a(I3
S'West'
p193
tp194
a(I0
g189
tp195
a(I1
g193
tp196
a(I2
g189
tp197
a(I3
g193
tp198
a(I0
g131
tp199
a(I1
g193
tp200
a(I2
g131
tp201
a(I3
g128
tp202
a(I0
g131
tp203
a(I1
g128
tp204
a(I2
g131
tp205
a(I3
g128
tp206
a(I0
g131
tp207
a(I1
g128
tp208
a(I2
g131
tp209
a(I3
g128
tp210
a(I0
g131
tp211
a(I1
g128
tp212
a(I2
g131
tp213
a(I3
g128
tp214
a(I0
g131
tp215
a(I1
g128
tp216
a(I2
g131
tp217
a(I3
g128
tp218
a(I0
g131
tp219
a(I1
g128
tp220
a(I2
g131
tp221
a(I3
g128
tp222
a(I0
g131
tp223
a(I1
g128
tp224
a(I2
g131
tp225
a(I3
g128
tp226
a(I0
g131
tp227
a(I1
g128
tp228
a(I2
g131
tp229
a(I3
g128
tp230
a(I0
g131
tp231
a(I1
g128
tp232
a(I2
g131
tp233
a(I3
g128
tp234
a(I0
g131
tp235
a(I1
g128
tp236
a(I2
g131
tp237
a(I3
g128
tp238
a(I0
g131
tp239
a(I1
g128
tp240
a(I2
g131
tp241
a(I3
g128
tp242
a(I0
g131
tp243
a(I1
g128
tp244
a(I2
g131
tp245
a(I3
g128
tp246
a(I0
g131
tp247
a(I1
g128
tp248
a(I2
g131
tp249
a(I3
g128
tp250
a(I0
g131
tp251
a(I1
g128
tp252
a(I2
g131
tp253
a(I3
g128
tp254
a(I0
g131
tp255
a(I1
g128
tp256
a(I2
g131
tp257
a(I3
g128
tp258
a(I0
g189
tp259
a(I1
g128
tp260
a(I2
g189
tp261
a(I3
g193
tp262
a(I0
g189
tp263
a(I1
g193
tp264
a(I2
g189
tp265
a(I3
g193
tp266
a(I0
g128
tp267
a(I1
g193
tp268
a(I2
g128
tp269
a(I3
g131
tp270
a(I0
g128
tp271
a(I1
g131
tp272
a(I2
g128
tp273
a(I3
g131
tp274
a(I0
g128
tp275
a(I1
g131
tp276
a(I2
g128
tp277
a(I3
g131
tp278
a(I0
g128
tp279
a(I1
g131
tp280
a(I2
g128
tp281
a(I3
g131
tp282
a(I0
g128
tp283
a(I1
g131
tp284
a(I2
g128
tp285
a(I3
g131
tp286
a(I0
g128
tp287
a(I1
g131
tp288
a(I2
g128
tp289
a(I3
g131
tp290
a(I0
g128
tp291
a(I1
g131
tp292
a(I2
g128
tp293
a(I3
g131
tp294
a(I0
g128
tp295
a(I1
g131
tp296
a(I2
g128
tp297
a(I3
g131
tp298
a(I0
g128
tp299
a(I1
g131
tp300
a(I2
g128
tp301
a(I3
g131
tp302
a(I0
g128
tp303
a(I1
g131
tp304
a(I2
g128
tp305
a(I3
g131
tp306
a(I0
g128
tp307
a(I1
g131
tp308
a(I2
g128
tp309
a(I3
g131
tp310
a(I0
g128
tp311
a(I1
g131
tp312
a(I2
g128
tp313
a(I3
g131
tp314
a(I0
g128
tp315
a(I1
g131
tp316
a(I2
g128
tp317
a(I3
g131
tp318
a(I0
g128
tp319
a(I1
g131
tp320
a(I2
g128
tp321
a(I3
g131
tp322
a(I0
g128
tp323
a(I1
g131
tp324
a(I2
g128
tp325
a(I3
g131
tp326
a(I0
g189
tp327
a(I1
g131
tp328
a(I2
g189
tp329
a(I3
g193
tp330
a(I0
g189
tp331
a(I1
g193
tp332
a(I2
g189
tp333
a(I3
g193
tp334
a(I0
g131
tp335
a(I1
g193
tp336
a(I2
g131
tp337
a(I3
g128
tp338
a(I0
g131
tp339
a(I1
g193
tp340
a(I2
g131
tp341
a(I3
g128
tp342
a(I0
g131
tp343
a(I1
g189
tp344
a(I2
g131
tp345
a(I3
g128
tp346
a(I0
g131
tp347
a(I1
g189
tp348
a(I2
g131
tp349
a(I3
g128
tp350
a(I0
g189
tp351
a(I1
g189
tp352
a(I2
g189
tp353
a(I3
g193
tp354
a(I0
g189
tp355
a(I1
g128
tp356
a(I2
g189
tp357
a(I3
g193
tp358
a(I0
g189
tp359
a(I1
g128
tp360
a(I2
g189
tp361
a(I3
g193
tp362
a(I0
g131
tp363
a(I1
g128
tp364
a(I2
g131
tp365
a(I3
g128
tp366
a(I0
g131
tp367
a(I1
g128
tp368
a(I2
g131
tp369
a(I3
g128
tp370
a(I0
g131
tp371
a(I1
g128
tp372
a(I2
g131
tp373
a(I3
g128
tp374
a(I0
g131
tp375
a(I1
g128
tp376
a(I2
g131
tp377
a(I3
g128
tp378
a(I0
g193
tp379
a(I1
g128
tp380
a(I2
g193
tp381
a(I3
g189
tp382
a(I0
g131
tp383
a(I1
g128
tp384
a(I2
g131
tp385
a(I3
g128
tp386
a(I0
g131
tp387
a(I1
g128
tp388
a(I2
g131
tp389
a(I3
g128
tp390
a(I0
g189
tp391
a(I1
g128
tp392
a(I2
g189
tp393
a(I3
g193
tp394
a(I0
g131
tp395
a(I1
g128
tp396
a(I2
g131
tp397
a(I3
g128
tp398
a(I0
g131
tp399
a(I1
g128
tp400
a(I2
g131
tp401
a(I3
g128
tp402
a(I0
g189
tp403
a(I1
g128
tp404
a(I2
g189
tp405
a(I3
g193
tp406
a(I0
g189
tp407
a(I1
g128
tp408
a(I2
g189
tp409
a(I3
g193
tp410
a(I0
g128
tp411
a(I1
g128
tp412
a(I2
g128
tp413
a(I3
g131
tp414
a(I0
g189
tp415
a(I1
g189
tp416
a(I2
g189
tp417
a(I3
g193
tp418
a(I0
g189
tp419
a(I1
g189
tp420
a(I2
g189
tp421
a(I3
g193
tp422
a(I0
g128
tp423
a(I1
g131
tp424
a(I2
g128
tp425
a(I3
g131
tp426
a(I0
g128
tp427
a(I1
g131
tp428
a(I2
g128
tp429
a(I3
g131
tp430
a(I0
g128
tp431
a(I1
g131
tp432
a(I2
g128
tp433
a(I3
g131
tp434
a(I0
g128
tp435
a(I1
g131
tp436
a(I2
g128
tp437
a(I3
g131
tp438
a(I0
g189
tp439
a(I1
g131
tp440
a(I2
g189
tp441
a(I3
g193
tp442
a(I0
g189
tp443
a(I1
g131
tp444
a(I2
g189
tp445
a(I3
g189
tp446
a(I0
g131
tp447
a(I1
g131
tp448
a(I2
g131
tp449
a(I3
g128
tp450
a(I0
S'Stop'
p451
tp452
a(I1
g131
tp453
a(I2
g451
tp454
a(I3
g131
tp455
a(I0
g451
tp456
a(I1
g131
tp457
a(I2
g451
tp458
a(I3
g128
tp459
a(I0
g128
tp460
a(I1
g131
tp461
a(I2
g131
tp462
a(I3
g131
tp463
a(I0
g193
tp464
a(I1
g131
tp465
a(I2
g131
tp466
a(I3
g193
tp467
a(I0
g193
tp468
a(I1
g131
tp469
a(I2
g451
tp470
a(I3
g193
tp471
a(I0
g131
tp472
a(I1
g131
tp473
a(I2
g451
tp474
a(I3
g128
tp475
a(I0
g451
tp476
a(I1
g131
tp477
a(I2
g131
tp478
a(I3
g193
tp479
a(I0
g451
tp480
a(I1
g131
tp481
a(I2
g128
tp482
a(I3
g189
tp483
a(I0
g451
tp484
a(I1
g189
tp485
a(I2
g131
tp486
a(I3
g193
tp487
a(I0
g451
tp488
a(I1
g189
tp489
a(I2
g128
tp490
a(I3
g189
tp491
a(I0
g451
tp492
a(I1
g128
tp493
a(I2
g131
tp494
a(I3
g193
tp495
a(I0
g451
tp496
a(I1
g128
tp497
a(I2
g128
tp498
a(I3
g189
tp499
a(I0
g451
tp500
a(I1
g128
tp501
a(I2
g451
tp502
a(I3
g193
tp503
a(I0
g451
tp504
a(I1
g128
tp505
a(I2
g451
tp506
a(I3
g189
tp507
a(I0
g451
tp508
a(I1
g128
tp509
a(I2
g128
tp510
a(I3
g193
tp511
a(I0
g451
tp512
a(I1
g128
tp513
a(I2
g131
tp514
a(I3
g189
tp515
a(I0
g451
tp516
a(I1
g128
tp517
a(I2
g128
tp518
a(I3
g193
tp519
a(I0
g451
tp520
a(I1
g128
tp521
a(I2
g131
tp522
a(I3
g189
tp523
a(I0
g451
tp524
a(I1
g128
tp525
a(I2
g128
tp526
a(I3
g193
tp527
a(I0
g451
tp528
a(I1
g128
tp529
a(I2
g189
tp530
a(I3
g189
tp531
a(I0
g451
tp532
a(I1
g131
tp533
a(I2
g193
tp534
a(I3
g193
tp535
a(I0
g451
tp536
a(I1
g131
tp537
a(I2
g131
tp538
a(I3
g189
tp539
a(I0
g451
tp540
a(I1
g131
tp541
a(I2
g128
tp542
a(I3
g193
tp543
a(I0
g451
tp544
a(I1
g131
tp545
a(I2
g131
tp546
a(I3
g189
tp547
a(I0
g451
tp548
a(I1
g131
tp549
a(I2
g128
tp550
a(I3
g193
tp551
a(I0
g451
tp552
a(I1
g131
tp553
a(I2
g189
tp554
a(I3
g189
tp555
a(I0
g451
tp556
a(I1
g131
tp557
a(I2
g193
tp558
a(I3
g193
tp559
a(I0
g451
tp560
a(I1
g131
tp561
a(I2
g131
tp562
a(I3
g189
tp563
a(I0
g451
tp564
a(I1
g131
tp565
a(I2
g131
tp566
a(I3
g193
tp567
a(I0
g451
tp568
a(I1
g131
tp569
a(I2
g128
tp570
a(I3
g189
tp571
a(I0
g451
tp572
a(I1
g193
tp573
a(I2
g131
tp574
a(I3
g193
tp575
a(I0
g451
tp576
a(I1
g193
tp577
a(I2
g128
tp578
a(I3
g189
tp579
a(I0
g451
tp580
a(I1
g128
tp581
a(I2
g131
tp582
a(I3
g193
tp583
a(I0
g451
tp584
a(I1
g128
tp585
a(I2
g128
tp586
a(I3
g189
tp587
a(I0
g451
tp588
a(I1
g128
tp589
a(I2
g451
tp590
a(I3
g193
tp591
a(I0
g451
tp592
a(I1
g128
tp593
a(I2
g451
tp594
a(I3
g189
tp595
a(I0
g451
tp596
a(I1
g128
tp597
a(I2
g128
tp598
a(I3
g193
tp599
a(I0
g451
tp600
a(I1
g128
tp601
a(I2
g189
tp602
a(I3
g189
tp603
a(I0
g451
tp604
a(I1
g128
tp605
a(I2
g193
tp606
a(I3
g193
tp607
a(I0
g451
tp608
a(I1
g128
tp609
a(I2
g189
tp610
a(I3
g189
tp611
a(I0
g451
tp612
a(I1
g128
tp613
a(I2
g193
tp614
a(I3
g193
tp615
a(I0
g451
tp616
a(I1
g128
tp617
a(I2
g189
tp618
a(I3
g189
tp619
a(I0
g451
tp620
a(I1
g128
tp621
a(I2
g193
tp622
a(I3
g193
tp623
a(I0
g451
tp624
a(I1
g128
tp625
a(I2
g189
tp626
a(I3
g189
tp627
a(I0
g451
tp628
a(I1
g128
tp629
a(I2
g193
tp630
a(I3
g193
tp631
a(I0
g451
tp632
a(I1
g128
tp633
a(I2
g131
tp634
a(I3
g189
tp635
a(I0
g451
tp636
a(I1
g128
tp637
a(I2
g128
tp638
a(I3
g193
tp639
a(I0
g451
tp640
a(I1
g193
tp641
a(I2
g131
tp642
a(I3
g189
tp643
a(I0
g451
tp644
a(I1
g193
tp645
a(I2
g128
tp646
a(I3
g193
tp647
a(I0
g451
tp648
a(I1
g131
tp649
a(I2
g189
tp650
a(I3
g189
tp651
a(I0
g451
tp652
a(I1
g131
tp653
a(I2
g193
tp654
a(I3
g193
tp655
a(I0
g451
tp656
a(I1
g131
tp657
a(I2
g189
tp658
a(I3
g189
tp659
a(I0
g451
tp660
a(I1
g131
tp661
a(I2
g193
tp662
a(I3
g193
tp663
a(I0
g451
tp664
a(I1
g131
tp665
a(I2
g131
tp666
a(I3
g189
tp667
a(I0
g451
tp668
a(I1
g131
tp669
a(I2
g128
tp670
a(I3
g193
tp671
a(I0
g451
tp672
a(I1
g131
tp673
a(I2
g189
tp674
a(I3
g189
tp675
a(I0
g451
tp676
a(I1
g131
tp677
a(I2
g193
tp678
a(I3
g193
tp679
a(I0
g451
tp680
a(I1
g131
tp681
a(I2
g189
tp682
a(I3
g189
tp683
a(I0
g451
tp684
a(I1
g131
tp685
a(I2
g193
tp686
a(I3
g193
tp687
a(I0
g451
tp688
a(I1
g131
tp689
a(I2
g189
tp690
a(I3
g189
tp691
a(I0
g451
tp692
a(I1
g131
tp693
a(I2
g193
tp694
a(I3
g193
tp695
a(I0
g451
tp696
a(I1
g131
tp697
a(I2
g189
tp698
a(I3
g189
tp699
a(I0
g451
tp700
a(I1
g131
tp701
a(I2
g193
tp702
a(I3
g193
tp703
a(I0
g451
tp704
a(I1
g131
tp705
a(I2
g189
tp706
a(I3
g189
tp707
a(I0
g451
tp708
a(I1
g193
tp709
a(I2
g193
tp710
a(I3
g193
tp711
a(I0
g451
tp712
a(I1
g193
tp713
a(I2
g131
tp714
a(I3
g189
tp715
a(I0
g451
tp716
a(I1
g193
tp717
a(I2
g131
tp718
a(I3
g193
tp719
a(I0
g451
tp720
a(I1
g189
tp721
a(I2
g128
tp722
a(I3
g189
tp723
a(I0
g451
tp724
a(I1
g189
tp725
a(I2
g131
tp726
a(I3
g193
tp727
a(I0
g451
tp728
a(I1
g189
tp729
a(I2
g128
tp730
a(I3
g189
tp731
a(I0
g451
tp732
asS'length'
p733
I600
sS'agents'
p734
(lp735
(igame
Agent
p736
(dp737
S'index'
p738
I0
sba(igame
Agent
p739
(dp740
g738
I0
sba(igame
Agent
p741
(dp742
g738
I0
sba(igame
Agent
p743
(dp744
g738
I0
sbasS'redTeamName'
p745
S'PacStreetsPac'
p746
s.